PARTICIPANT_ID	TEST_SECTION_ID	SENTENCE	USER_INPUT	KEYSTROKE_ID	PRESS_TIME	RELEASE_TIME	LETTER	KEYCODE
444311	4783111	I will add this to the folder and let you know when we get into it.	I will add this to the folder and let you know when we get into it.	227093941	1478097508351	1478097508920	SHIFT	16
444311	4783111	I will add this to the folder and let you know when we get into it.	I will add this to the folder and let you know when we get into it.	227093947	1478097508820	1478097508936	I	73
444311	4783111	I will add this to the folder and let you know when we get into it.	I will add this to the folder and let you know when we get into it.	227093951	1478097509092	1478097509196	 	32
444311	4783111	I will add this to the folder and let you know when we get into it.	I will add this to the folder and let you know when we get into it.	227093956	1478097509259	1478097509347	w	87
444311	4783111	I will add this to the folder and let you know when we get into it.	I will add this to the folder and let you know when we get into it.	227093960	1478097509378	1478097509446	i	73
444311	4783111	I will add this to the folder and let you know when we get into it.	I will add this to the folder and let you know when we get into it.	227093964	1478097509571	1478097509632	l	76
444311	4783111	I will add this to the folder and let you know when we get into it.	I will add this to the folder and let you know when we get into it.	227094012	1478097509707	1478097509788	l	76
444311	4783111	I will add this to the folder and let you know when we get into it.	I will add this to the folder and let you know when we get into it.	227094016	1478097509897	1478097509964	 	32
444311	4783111	I will add this to the folder and let you know when we get into it.	I will add this to the folder and let you know when we get into it.	227094024	1478097509996	1478097510137	a	65
444311	4783111	I will add this to the folder and let you know when we get into it.	I will add this to the folder and let you know when we get into it.	227094030	1478097510213	1478097510280	d	68
444311	4783111	I will add this to the folder and let you know when we get into it.	I will add this to the folder and let you know when we get into it.	227094036	1478097510367	1478097510446	d	68
444311	4783111	I will add this to the folder and let you know when we get into it.	I will add this to the folder and let you know when we get into it.	227094064	1478097510504	1478097510588	 	32
444311	4783111	I will add this to the folder and let you know when we get into it.	I will add this to the folder and let you know when we get into it.	227094071	1478097510681	1478097510763	t	84
444311	4783111	I will add this to the folder and let you know when we get into it.	I will add this to the folder and let you know when we get into it.	227094079	1478097510857	1478097510925	h	72
444311	4783111	I will add this to the folder and let you know when we get into it.	I will add this to the folder and let you know when we get into it.	227094086	1478097510941	1478097511045	i	73
444311	4783111	I will add this to the folder and let you know when we get into it.	I will add this to the folder and let you know when we get into it.	227094100	1478097511092	1478097511179	s	83
444311	4783111	I will add this to the folder and let you know when we get into it.	I will add this to the folder and let you know when we get into it.	227094151	1478097511252	1478097511336	 	32
444311	4783111	I will add this to the folder and let you know when we get into it.	I will add this to the folder and let you know when we get into it.	227094157	1478097511414	1478097511502	t	84
444311	4783111	I will add this to the folder and let you know when we get into it.	I will add this to the folder and let you know when we get into it.	227094162	1478097511596	1478097511702	o	79
444311	4783111	I will add this to the folder and let you know when we get into it.	I will add this to the folder and let you know when we get into it.	227094168	1478097511827	1478097511945	 	32
444311	4783111	I will add this to the folder and let you know when we get into it.	I will add this to the folder and let you know when we get into it.	227094175	1478097511994	1478097512071	t	84
444311	4783111	I will add this to the folder and let you know when we get into it.	I will add this to the folder and let you know when we get into it.	227094217	1478097512128	1478097512228	h	72
444311	4783111	I will add this to the folder and let you know when we get into it.	I will add this to the folder and let you know when we get into it.	227094221	1478097512291	1478097512387	e	69
444311	4783111	I will add this to the folder and let you know when we get into it.	I will add this to the folder and let you know when we get into it.	227094224	1478097512402	1478097512511	 	32
444311	4783111	I will add this to the folder and let you know when we get into it.	I will add this to the folder and let you know when we get into it.	227094229	1478097512589	1478097512669	f	70
444311	4783111	I will add this to the folder and let you know when we get into it.	I will add this to the folder and let you know when we get into it.	227094238	1478097512732	1478097512814	o	79
444311	4783111	I will add this to the folder and let you know when we get into it.	I will add this to the folder and let you know when we get into it.	227094311	1478097512908	1478097512997	l	76
444311	4783111	I will add this to the folder and let you know when we get into it.	I will add this to the folder and let you know when we get into it.	227094315	1478097513090	1478097513196	d	68
444311	4783111	I will add this to the folder and let you know when we get into it.	I will add this to the folder and let you know when we get into it.	227094320	1478097513323	1478097513412	e	69
444311	4783111	I will add this to the folder and let you know when we get into it.	I will add this to the folder and let you know when we get into it.	227094324	1478097513459	1478097513545	r	82
444311	4783111	I will add this to the folder and let you know when we get into it.	I will add this to the folder and let you know when we get into it.	227094330	1478097513607	1478097513680	 	32
444311	4783111	I will add this to the folder and let you know when we get into it.	I will add this to the folder and let you know when we get into it.	227094386	1478097513754	1478097513884	a	65
444311	4783111	I will add this to the folder and let you know when we get into it.	I will add this to the folder and let you know when we get into it.	227094390	1478097513916	1478097514002	n	78
444311	4783111	I will add this to the folder and let you know when we get into it.	I will add this to the folder and let you know when we get into it.	227094395	1478097514033	1478097514120	d	68
444311	4783111	I will add this to the folder and let you know when we get into it.	I will add this to the folder and let you know when we get into it.	227094402	1478097514151	1478097514236	 	32
444311	4783111	I will add this to the folder and let you know when we get into it.	I will add this to the folder and let you know when we get into it.	227094411	1478097514346	1478097514461	l	76
444311	4783111	I will add this to the folder and let you know when we get into it.	I will add this to the folder and let you know when we get into it.	227094467	1478097514620	1478097514718	e	69
444311	4783111	I will add this to the folder and let you know when we get into it.	I will add this to the folder and let you know when we get into it.	227094471	1478097514843	1478097514936	t	84
444311	4783111	I will add this to the folder and let you know when we get into it.	I will add this to the folder and let you know when we get into it.	227094473	1478097515015	1478097515118	 	32
444311	4783111	I will add this to the folder and let you know when we get into it.	I will add this to the folder and let you know when we get into it.	227094474	1478097515196	1478097515271	y	89
444311	4783111	I will add this to the folder and let you know when we get into it.	I will add this to the folder and let you know when we get into it.	227094476	1478097515318	1478097515420	o	79
444311	4783111	I will add this to the folder and let you know when we get into it.	I will add this to the folder and let you know when we get into it.	227094507	1478097515492	1478097515571	u	85
444311	4783111	I will add this to the folder and let you know when we get into it.	I will add this to the folder and let you know when we get into it.	227094511	1478097515713	1478097515803	 	32
444311	4783111	I will add this to the folder and let you know when we get into it.	I will add this to the folder and let you know when we get into it.	227094513	1478097515881	1478097515980	k	75
444311	4783111	I will add this to the folder and let you know when we get into it.	I will add this to the folder and let you know when we get into it.	227094516	1478097516120	1478097516203	n	78
444311	4783111	I will add this to the folder and let you know when we get into it.	I will add this to the folder and let you know when we get into it.	227094518	1478097516369	1478097516478	o	79
444311	4783111	I will add this to the folder and let you know when we get into it.	I will add this to the folder and let you know when we get into it.	227094557	1478097516535	1478097516622	w	87
444311	4783111	I will add this to the folder and let you know when we get into it.	I will add this to the folder and let you know when we get into it.	227094567	1478097516747	1478097516820	 	32
444311	4783111	I will add this to the folder and let you know when we get into it.	I will add this to the folder and let you know when we get into it.	227094574	1478097516914	1478097516988	w	87
444311	4783111	I will add this to the folder and let you know when we get into it.	I will add this to the folder and let you know when we get into it.	227094586	1478097517073	1478097517137	h	72
444311	4783111	I will add this to the folder and let you know when we get into it.	I will add this to the folder and let you know when we get into it.	227094594	1478097517199	1478097517295	e	69
444311	4783111	I will add this to the folder and let you know when we get into it.	I will add this to the folder and let you know when we get into it.	227094657	1478097517383	1478097517464	n	78
444311	4783111	I will add this to the folder and let you know when we get into it.	I will add this to the folder and let you know when we get into it.	227094664	1478097517557	1478097517652	 	32
444311	4783111	I will add this to the folder and let you know when we get into it.	I will add this to the folder and let you know when we get into it.	227094675	1478097517699	1478097517811	w	87
444311	4783111	I will add this to the folder and let you know when we get into it.	I will add this to the folder and let you know when we get into it.	227094684	1478097517873	1478097517962	e	69
444311	4783111	I will add this to the folder and let you know when we get into it.	I will add this to the folder and let you know when we get into it.	227094691	1478097518024	1478097518112	 	32
444311	4783111	I will add this to the folder and let you know when we get into it.	I will add this to the folder and let you know when we get into it.	227094764	1478097518411	1478097518471	g	71
444311	4783111	I will add this to the folder and let you know when we get into it.	I will add this to the folder and let you know when we get into it.	227094767	1478097518534	1478097518614	e	69
444311	4783111	I will add this to the folder and let you know when we get into it.	I will add this to the folder and let you know when we get into it.	227094772	1478097518692	1478097518771	t	84
444311	4783111	I will add this to the folder and let you know when we get into it.	I will add this to the folder and let you know when we get into it.	227094774	1478097518881	1478097518980	 	32
444311	4783111	I will add this to the folder and let you know when we get into it.	I will add this to the folder and let you know when we get into it.	227094778	1478097519105	1478097519212	i	73
444311	4783111	I will add this to the folder and let you know when we get into it.	I will add this to the folder and let you know when we get into it.	227095000	1478097519316	1478097519399	n	78
444311	4783111	I will add this to the folder and let you know when we get into it.	I will add this to the folder and let you know when we get into it.	227095004	1478097521724	1478097521815	t	84
444311	4783111	I will add this to the folder and let you know when we get into it.	I will add this to the folder and let you know when we get into it.	227095008	1478097521924	1478097522022	o	79
444311	4783111	I will add this to the folder and let you know when we get into it.	I will add this to the folder and let you know when we get into it.	227095014	1478097522135	1478097522251	 	32
444311	4783111	I will add this to the folder and let you know when we get into it.	I will add this to the folder and let you know when we get into it.	227095020	1478097522329	1478097522420	i	73
444311	4783111	I will add this to the folder and let you know when we get into it.	I will add this to the folder and let you know when we get into it.	227095283	1478097522651	1478097522736	t	84
444311	4783111	I will add this to the folder and let you know when we get into it.	I will add this to the folder and let you know when we get into it.	227095289	1478097523064	1478097523122	.	190
444311	4783165	Can you rough out a slide on rating agencies?	Can you rough out the lines on rating agencies?	227095874	1478097533230	1478097533477	SHIFT	16
444311	4783165	Can you rough out a slide on rating agencies?	Can you rough out the lines on rating agencies?	227095870	1478097533355	1478097533477	C	67
444311	4783165	Can you rough out a slide on rating agencies?	Can you rough out the lines on rating agencies?	227095878	1478097533571	1478097533686	a	65
444311	4783165	Can you rough out a slide on rating agencies?	Can you rough out the lines on rating agencies?	227095882	1478097533749	1478097533846	n	78
444311	4783165	Can you rough out a slide on rating agencies?	Can you rough out the lines on rating agencies?	227095891	1478097533909	1478097534019	 	32
444311	4783165	Can you rough out a slide on rating agencies?	Can you rough out the lines on rating agencies?	227095896	1478097534097	1478097534203	y	89
444311	4783165	Can you rough out a slide on rating agencies?	Can you rough out the lines on rating agencies?	227095958	1478097534214	1478097534343	o	79
444311	4783165	Can you rough out a slide on rating agencies?	Can you rough out the lines on rating agencies?	227095964	1478097534390	1478097534472	u	85
444311	4783165	Can you rough out a slide on rating agencies?	Can you rough out the lines on rating agencies?	227095967	1478097534628	1478097534697	 	32
444311	4783165	Can you rough out a slide on rating agencies?	Can you rough out the lines on rating agencies?	227095972	1478097535067	1478097535138	r	82
444311	4783165	Can you rough out a slide on rating agencies?	Can you rough out the lines on rating agencies?	227095975	1478097535231	1478097535335	o	79
444311	4783165	Can you rough out a slide on rating agencies?	Can you rough out the lines on rating agencies?	227096035	1478097535470	1478097535547	u	85
444311	4783165	Can you rough out a slide on rating agencies?	Can you rough out the lines on rating agencies?	227096040	1478097535594	1478097535671	g	71
444311	4783165	Can you rough out a slide on rating agencies?	Can you rough out the lines on rating agencies?	227096045	1478097535702	1478097535780	h	72
444311	4783165	Can you rough out a slide on rating agencies?	Can you rough out the lines on rating agencies?	227096050	1478097535859	1478097535962	 	32
444311	4783165	Can you rough out a slide on rating agencies?	Can you rough out the lines on rating agencies?	227096051	1478097536071	1478097536209	o	79
444311	4783165	Can you rough out a slide on rating agencies?	Can you rough out the lines on rating agencies?	227096073	1478097536272	1478097536347	u	85
444311	4783165	Can you rough out a slide on rating agencies?	Can you rough out the lines on rating agencies?	227096077	1478097536409	1478097536487	t	84
444311	4783165	Can you rough out a slide on rating agencies?	Can you rough out the lines on rating agencies?	227096083	1478097536518	1478097536597	 	32
444311	4783165	Can you rough out a slide on rating agencies?	Can you rough out the lines on rating agencies?	227096088	1478097536644	1478097536714	t	84
444311	4783165	Can you rough out a slide on rating agencies?	Can you rough out the lines on rating agencies?	227096092	1478097536730	1478097536826	h	72
444311	4783165	Can you rough out a slide on rating agencies?	Can you rough out the lines on rating agencies?	227096138	1478097536854	1478097536968	e	69
444311	4783165	Can you rough out a slide on rating agencies?	Can you rough out the lines on rating agencies?	227096142	1478097537062	1478097537128	 	32
444311	4783165	Can you rough out a slide on rating agencies?	Can you rough out the lines on rating agencies?	227096147	1478097537272	1478097537368	l	76
444311	4783165	Can you rough out a slide on rating agencies?	Can you rough out the lines on rating agencies?	227096151	1478097537477	1478097537554	i	73
444311	4783165	Can you rough out a slide on rating agencies?	Can you rough out the lines on rating agencies?	227096155	1478097537647	1478097537745	n	78
444311	4783165	Can you rough out a slide on rating agencies?	Can you rough out the lines on rating agencies?	227096322	1478097538211	1478097538296	e	69
444311	4783165	Can you rough out a slide on rating agencies?	Can you rough out the lines on rating agencies?	227096325	1478097538390	1478097538486	s	83
444311	4783165	Can you rough out a slide on rating agencies?	Can you rough out the lines on rating agencies?	227096331	1478097538611	1478097538703	 	32
444311	4783165	Can you rough out a slide on rating agencies?	Can you rough out the lines on rating agencies?	227096336	1478097539283	1478097539380	o	79
444311	4783165	Can you rough out a slide on rating agencies?	Can you rough out the lines on rating agencies?	227096339	1478097539723	1478097539812	n	78
444311	4783165	Can you rough out a slide on rating agencies?	Can you rough out the lines on rating agencies?	227096425	1478097539916	1478097540020	 	32
444311	4783165	Can you rough out a slide on rating agencies?	Can you rough out the lines on rating agencies?	227096429	1478097540358	1478097540454	r	82
444311	4783165	Can you rough out a slide on rating agencies?	Can you rough out the lines on rating agencies?	227096432	1478097540563	1478097540661	a	65
444311	4783165	Can you rough out a slide on rating agencies?	Can you rough out the lines on rating agencies?	227096436	1478097540708	1478097540787	t	84
444311	4783165	Can you rough out a slide on rating agencies?	Can you rough out the lines on rating agencies?	227096440	1478097541006	1478097541118	i	73
444311	4783165	Can you rough out a slide on rating agencies?	Can you rough out the lines on rating agencies?	227096559	1478097541243	1478097541329	n	78
444311	4783165	Can you rough out a slide on rating agencies?	Can you rough out the lines on rating agencies?	227096563	1478097541361	1478097541431	g	71
444311	4783165	Can you rough out a slide on rating agencies?	Can you rough out the lines on rating agencies?	227096566	1478097541509	1478097541603	 	32
444311	4783165	Can you rough out a slide on rating agencies?	Can you rough out the lines on rating agencies?	227096569	1478097542079	1478097542193	a	65
444311	4783165	Can you rough out a slide on rating agencies?	Can you rough out the lines on rating agencies?	227096576	1478097542225	1478097542290	g	71
444311	4783165	Can you rough out a slide on rating agencies?	Can you rough out the lines on rating agencies?	227096643	1478097542380	1478097542495	e	69
444311	4783165	Can you rough out a slide on rating agencies?	Can you rough out the lines on rating agencies?	227096648	1478097542612	1478097542688	n	78
444311	4783165	Can you rough out a slide on rating agencies?	Can you rough out the lines on rating agencies?	227096655	1478097542955	1478097543077	c	67
444311	4783165	Can you rough out a slide on rating agencies?	Can you rough out the lines on rating agencies?	227096663	1478097543188	1478097543264	i	73
444311	4783165	Can you rough out a slide on rating agencies?	Can you rough out the lines on rating agencies?	227096670	1478097543358	1478097543460	e	69
444311	4783165	Can you rough out a slide on rating agencies?	Can you rough out the lines on rating agencies?	227097064	1478097543549	1478097543671	s	83
444311	4783165	Can you rough out a slide on rating agencies?	Can you rough out the lines on rating agencies?	227097072	1478097544202	1478097545376	SHIFT	16
444311	4783165	Can you rough out a slide on rating agencies?	Can you rough out the lines on rating agencies?	227097067	1478097545251	1478097545361	?	191
444311	4783203	I liked your flag.	I liked your flag.	227097540	1478097552758	1478097553377	SHIFT	16
444311	4783203	I liked your flag.	I liked your flag.	227097544	1478097553259	1478097553392	I	73
444311	4783203	I liked your flag.	I liked your flag.	227097548	1478097553596	1478097553711	 	32
444311	4783203	I liked your flag.	I liked your flag.	227097552	1478097553773	1478097553853	l	76
444311	4783203	I liked your flag.	I liked your flag.	227097554	1478097553962	1478097554029	i	73
444311	4783203	I liked your flag.	I liked your flag.	227097555	1478097554123	1478097554231	k	75
444311	4783203	I liked your flag.	I liked your flag.	227097617	1478097554211	1478097554335	e	69
444311	4783203	I liked your flag.	I liked your flag.	227097621	1478097554382	1478097554501	d	68
444311	4783203	I liked your flag.	I liked your flag.	227097626	1478097554563	1478097554700	 	32
444311	4783203	I liked your flag.	I liked your flag.	227097632	1478097554825	1478097554968	y	89
444311	4783203	I liked your flag.	I liked your flag.	227097636	1478097554944	1478097555098	o	79
444311	4783203	I liked your flag.	I liked your flag.	227097640	1478097555176	1478097555263	u	85
444311	4783203	I liked your flag.	I liked your flag.	227097717	1478097555341	1478097555466	r	82
444311	4783203	I liked your flag.	I liked your flag.	227097719	1478097555623	1478097555718	 	32
444311	4783203	I liked your flag.	I liked your flag.	227097722	1478097556113	1478097556202	f	70
444311	4783203	I liked your flag.	I liked your flag.	227097724	1478097556280	1478097556363	l	76
444311	4783203	I liked your flag.	I liked your flag.	227097731	1478097556504	1478097556622	a	65
444311	4783203	I liked your flag.	I liked your flag.	227097888	1478097557135	1478097557202	g	71
444311	4783203	I liked your flag.	I liked your flag.	227097893	1478097558380	1478097558470	.	190
444311	4783221	We've pursued other options and as a result we've made some progress.	We've purdued other options and as a result we've made some progress	227102244	1478097613870	1478097614253	SHIFT	16
444311	4783221	We've pursued other options and as a result we've made some progress.	We've purdued other options and as a result we've made some progress	227102242	1478097614057	1478097614222	W	87
444311	4783221	We've pursued other options and as a result we've made some progress.	We've purdued other options and as a result we've made some progress	227102250	1478097614363	1478097614474	e	69
444311	4783221	We've pursued other options and as a result we've made some progress.	We've purdued other options and as a result we've made some progress	227102254	1478097614786	1478097614882	'	222
444311	4783221	We've pursued other options and as a result we've made some progress.	We've purdued other options and as a result we've made some progress	227102255	1478097615895	1478097615967	v	86
444311	4783221	We've pursued other options and as a result we've made some progress.	We've purdued other options and as a result we've made some progress	227102258	1478097615998	1478097616091	e	69
444311	4783221	We've pursued other options and as a result we've made some progress.	We've purdued other options and as a result we've made some progress	227102321	1478097616168	1478097616264	 	32
444311	4783221	We've pursued other options and as a result we've made some progress.	We've purdued other options and as a result we've made some progress	227102326	1478097616566	1478097616664	p	80
444311	4783221	We've pursued other options and as a result we've made some progress.	We've purdued other options and as a result we've made some progress	227102331	1478097616836	1478097616909	u	85
444311	4783221	We've pursued other options and as a result we've made some progress.	We've purdued other options and as a result we've made some progress	227102340	1478097617003	1478097617076	r	82
444311	4783221	We've pursued other options and as a result we've made some progress.	We've purdued other options and as a result we've made some progress	227102349	1478097617217	1478097617331	d	68
444311	4783221	We've pursued other options and as a result we've made some progress.	We've purdued other options and as a result we've made some progress	227102457	1478097617389	1478097617467	u	85
444311	4783221	We've pursued other options and as a result we've made some progress.	We've purdued other options and as a result we've made some progress	227102464	1478097617904	1478097617975	e	69
444311	4783221	We've pursued other options and as a result we've made some progress.	We've purdued other options and as a result we've made some progress	227102466	1478097618104	1478097618215	d	68
444311	4783221	We've pursued other options and as a result we've made some progress.	We've purdued other options and as a result we've made some progress	227102469	1478097618795	1478097618901	 	32
444311	4783221	We've pursued other options and as a result we've made some progress.	We've purdued other options and as a result we've made some progress	227102473	1478097619543	1478097619616	o	79
444311	4783221	We've pursued other options and as a result we've made some progress.	We've purdued other options and as a result we've made some progress	227102546	1478097619674	1478097619742	t	84
444311	4783221	We've pursued other options and as a result we've made some progress.	We've purdued other options and as a result we've made some progress	227102550	1478097619836	1478097619909	h	72
444311	4783221	We've pursued other options and as a result we've made some progress.	We've purdued other options and as a result we've made some progress	227102554	1478097619987	1478097620129	e	69
444311	4783221	We've pursued other options and as a result we've made some progress.	We've purdued other options and as a result we've made some progress	227102558	1478097620144	1478097620272	r	82
444311	4783221	We've pursued other options and as a result we've made some progress.	We've purdued other options and as a result we've made some progress	227102564	1478097621097	1478097621199	 	32
444311	4783221	We've pursued other options and as a result we've made some progress.	We've purdued other options and as a result we've made some progress	227102663	1478097621619	1478097621693	o	79
444311	4783221	We've pursued other options and as a result we've made some progress.	We've purdued other options and as a result we've made some progress	227102665	1478097621755	1478097621872	p	80
444311	4783221	We've pursued other options and as a result we've made some progress.	We've purdued other options and as a result we've made some progress	227102666	1478097622133	1478097622199	t	84
444311	4783221	We've pursued other options and as a result we've made some progress.	We've purdued other options and as a result we've made some progress	227102667	1478097622293	1478097622414	i	73
444311	4783221	We've pursued other options and as a result we've made some progress.	We've purdued other options and as a result we've made some progress	227102669	1478097622445	1478097622557	o	79
444311	4783221	We've pursued other options and as a result we've made some progress.	We've purdued other options and as a result we've made some progress	227102764	1478097622713	1478097622839	n	78
444311	4783221	We've pursued other options and as a result we've made some progress.	We've purdued other options and as a result we've made some progress	227102766	1478097622870	1478097622998	s	83
444311	4783221	We've pursued other options and as a result we've made some progress.	We've purdued other options and as a result we've made some progress	227102769	1478097623216	1478097623347	 	32
444311	4783221	We've pursued other options and as a result we've made some progress.	We've purdued other options and as a result we've made some progress	227102773	1478097623826	1478097623947	a	65
444311	4783221	We've pursued other options and as a result we've made some progress.	We've purdued other options and as a result we've made some progress	227102777	1478097623978	1478097624058	n	78
444311	4783221	We've pursued other options and as a result we've made some progress.	We've purdued other options and as a result we've made some progress	227102841	1478097624118	1478097624192	d	68
444311	4783221	We've pursued other options and as a result we've made some progress.	We've purdued other options and as a result we've made some progress	227102847	1478097624286	1478097624367	 	32
444311	4783221	We've pursued other options and as a result we've made some progress.	We've purdued other options and as a result we've made some progress	227102853	1478097624476	1478097624581	a	65
444311	4783221	We've pursued other options and as a result we've made some progress.	We've purdued other options and as a result we've made some progress	227102857	1478097624800	1478097624913	s	83
444311	4783221	We've pursued other options and as a result we've made some progress.	We've purdued other options and as a result we've made some progress	227102864	1478097625260	1478097625358	 	32
444311	4783221	We've pursued other options and as a result we've made some progress.	We've purdued other options and as a result we've made some progress	227102982	1478097625509	1478097625615	a	65
444311	4783221	We've pursued other options and as a result we've made some progress.	We've purdued other options and as a result we've made some progress	227102985	1478097625709	1478097625808	 	32
444311	4783221	We've pursued other options and as a result we've made some progress.	We've purdued other options and as a result we've made some progress	227102991	1478097626137	1478097626225	s	83
444311	4783221	We've pursued other options and as a result we've made some progress.	We've purdued other options and as a result we've made some progress	227103000	1478097626475	1478097626590	BKSP	8
444311	4783221	We've pursued other options and as a result we've made some progress.	We've purdued other options and as a result we've made some progress	227103006	1478097626637	1478097626731	r	82
444311	4783221	We've pursued other options and as a result we've made some progress.	We've purdued other options and as a result we've made some progress	227103012	1478097626825	1478097626908	e	69
444311	4783221	We've pursued other options and as a result we've made some progress.	We've purdued other options and as a result we've made some progress	227103119	1478097627017	1478097627115	s	83
444311	4783221	We've pursued other options and as a result we've made some progress.	We've purdued other options and as a result we've made some progress	227103122	1478097627209	1478097627260	u	85
444311	4783221	We've pursued other options and as a result we've made some progress.	We've purdued other options and as a result we've made some progress	227103126	1478097627428	1478097627540	l	76
444311	4783221	We've pursued other options and as a result we've made some progress.	We've purdued other options and as a result we've made some progress	227103131	1478097627699	1478097627829	t	84
444311	4783221	We've pursued other options and as a result we've made some progress.	We've purdued other options and as a result we've made some progress	227103134	1478097628488	1478097628560	 	32
444311	4783221	We've pursued other options and as a result we've made some progress.	We've purdued other options and as a result we've made some progress	227103257	1478097628918	1478097629045	w	87
444311	4783221	We've pursued other options and as a result we've made some progress.	We've purdued other options and as a result we've made some progress	227103261	1478097629155	1478097629249	e	69
444311	4783221	We've pursued other options and as a result we've made some progress.	We've purdued other options and as a result we've made some progress	227103264	1478097629561	1478097629633	'	222
444311	4783221	We've pursued other options and as a result we've made some progress.	We've purdued other options and as a result we've made some progress	227103267	1478097630619	1478097630699	v	86
444311	4783221	We've pursued other options and as a result we've made some progress.	We've purdued other options and as a result we've made some progress	227103271	1478097630761	1478097630879	e	69
444311	4783221	We've pursued other options and as a result we've made some progress.	We've purdued other options and as a result we've made some progress	227103343	1478097630999	1478097631115	 	32
444311	4783221	We've pursued other options and as a result we've made some progress.	We've purdued other options and as a result we've made some progress	227103349	1478097631694	1478097631781	m	77
444311	4783221	We've pursued other options and as a result we've made some progress.	We've purdued other options and as a result we've made some progress	227103355	1478097631797	1478097631929	a	65
444311	4783221	We've pursued other options and as a result we've made some progress.	We've purdued other options and as a result we've made some progress	227103359	1478097632008	1478097632114	d	68
444311	4783221	We've pursued other options and as a result we've made some progress.	We've purdued other options and as a result we've made some progress	227103362	1478097632192	1478097632313	e	69
444311	4783221	We've pursued other options and as a result we've made some progress.	We've purdued other options and as a result we've made some progress	227103401	1478097632465	1478097632533	 	32
444311	4783221	We've pursued other options and as a result we've made some progress.	We've purdued other options and as a result we've made some progress	227103403	1478097633160	1478097633248	s	83
444311	4783221	We've pursued other options and as a result we've made some progress.	We've purdued other options and as a result we've made some progress	227103405	1478097633303	1478097633366	o	79
444311	4783221	We've pursued other options and as a result we've made some progress.	We've purdued other options and as a result we've made some progress	227103407	1478097633475	1478097633559	m	77
444311	4783221	We've pursued other options and as a result we've made some progress.	We've purdued other options and as a result we've made some progress	227103409	1478097633574	1478097633664	e	69
444311	4783221	We've pursued other options and as a result we've made some progress.	We've purdued other options and as a result we've made some progress	227103484	1478097633710	1478097633776	 	32
444311	4783221	We've pursued other options and as a result we've made some progress.	We've purdued other options and as a result we've made some progress	227103487	1478097634156	1478097634226	p	80
444311	4783221	We've pursued other options and as a result we've made some progress.	We've purdued other options and as a result we've made some progress	227103491	1478097634289	1478097634375	r	82
444311	4783221	We've pursued other options and as a result we've made some progress.	We've purdued other options and as a result we've made some progress	227103494	1478097634515	1478097634600	o	79
444311	4783221	We've pursued other options and as a result we've made some progress.	We've purdued other options and as a result we've made some progress	227103502	1478097634975	1478097635033	g	71
444311	4783221	We've pursued other options and as a result we've made some progress.	We've purdued other options and as a result we've made some progress	227103590	1478097635077	1478097635159	r	82
444311	4783221	We've pursued other options and as a result we've made some progress.	We've purdued other options and as a result we've made some progress	227103593	1478097635284	1478097635390	e	69
444311	4783221	We've pursued other options and as a result we've made some progress.	We've purdued other options and as a result we've made some progress	227103602	1478097635483	1478097635597	s	83
444311	4783221	We've pursued other options and as a result we've made some progress.	We've purdued other options and as a result we've made some progress	227103608	1478097635675	1478097635766	s	83
444311	4783335	I know my way around the hospital better than I do the stadium.	I know my way around the hospital better than i know my way around the stadium.	227104293	1478097639238	1478097640555	SHIFT	16
444311	4783335	I know my way around the hospital better than I do the stadium.	I know my way around the hospital better than i know my way around the stadium.	227104295	1478097647361	1478097648006	SHIFT	16
444311	4783335	I know my way around the hospital better than I do the stadium.	I know my way around the hospital better than i know my way around the stadium.	227104297	1478097647879	1478097648021	I	73
444311	4783335	I know my way around the hospital better than I do the stadium.	I know my way around the hospital better than i know my way around the stadium.	227104299	1478097648209	1478097648313	 	32
444311	4783335	I know my way around the hospital better than I do the stadium.	I know my way around the hospital better than i know my way around the stadium.	227104301	1478097648391	1478097648497	k	75
444311	4783335	I know my way around the hospital better than I do the stadium.	I know my way around the hospital better than i know my way around the stadium.	227104304	1478097648544	1478097648714	n	78
444311	4783335	I know my way around the hospital better than I do the stadium.	I know my way around the hospital better than i know my way around the stadium.	227104416	1478097648693	1478097648775	o	79
444311	4783335	I know my way around the hospital better than I do the stadium.	I know my way around the hospital better than i know my way around the stadium.	227104422	1478097648838	1478097648947	w	87
444311	4783335	I know my way around the hospital better than I do the stadium.	I know my way around the hospital better than i know my way around the stadium.	227104427	1478097649119	1478097649278	 	32
444311	4783335	I know my way around the hospital better than I do the stadium.	I know my way around the hospital better than i know my way around the stadium.	227104428	1478097649309	1478097649444	m	77
444311	4783335	I know my way around the hospital better than I do the stadium.	I know my way around the hospital better than i know my way around the stadium.	227104430	1478097649664	1478097649733	y	89
444311	4783335	I know my way around the hospital better than I do the stadium.	I know my way around the hospital better than i know my way around the stadium.	227104433	1478097650745	1478097650830	 	32
444311	4783335	I know my way around the hospital better than I do the stadium.	I know my way around the hospital better than i know my way around the stadium.	227104471	1478097650905	1478097651039	w	87
444311	4783335	I know my way around the hospital better than I do the stadium.	I know my way around the hospital better than i know my way around the stadium.	227104474	1478097651132	1478097651230	a	65
444311	4783335	I know my way around the hospital better than I do the stadium.	I know my way around the hospital better than i know my way around the stadium.	227104479	1478097651277	1478097651373	y	89
444311	4783335	I know my way around the hospital better than I do the stadium.	I know my way around the hospital better than i know my way around the stadium.	227104484	1478097651467	1478097651558	 	32
444311	4783335	I know my way around the hospital better than I do the stadium.	I know my way around the hospital better than i know my way around the stadium.	227104490	1478097651620	1478097651762	a	65
444311	4783335	I know my way around the hospital better than I do the stadium.	I know my way around the hospital better than i know my way around the stadium.	227104533	1478097651862	1478097651949	r	82
444311	4783335	I know my way around the hospital better than I do the stadium.	I know my way around the hospital better than i know my way around the stadium.	227104534	1478097652011	1478097652113	o	79
444311	4783335	I know my way around the hospital better than I do the stadium.	I know my way around the hospital better than i know my way around the stadium.	227104536	1478097652229	1478097652307	u	85
444311	4783335	I know my way around the hospital better than I do the stadium.	I know my way around the hospital better than i know my way around the stadium.	227104541	1478097652448	1478097652508	n	78
444311	4783335	I know my way around the hospital better than I do the stadium.	I know my way around the hospital better than i know my way around the stadium.	227104545	1478097652602	1478097652713	d	68
444311	4783335	I know my way around the hospital better than I do the stadium.	I know my way around the hospital better than i know my way around the stadium.	227104573	1478097652739	1478097652841	 	32
444311	4783335	I know my way around the hospital better than I do the stadium.	I know my way around the hospital better than i know my way around the stadium.	227104578	1478097652919	1478097653007	t	84
444311	4783335	I know my way around the hospital better than I do the stadium.	I know my way around the hospital better than i know my way around the stadium.	227104583	1478097653038	1478097653125	h	72
444311	4783335	I know my way around the hospital better than I do the stadium.	I know my way around the hospital better than i know my way around the stadium.	227104588	1478097653156	1478097653263	e	69
444311	4783335	I know my way around the hospital better than I do the stadium.	I know my way around the hospital better than i know my way around the stadium.	227104592	1478097653310	1478097653407	 	32
444311	4783335	I know my way around the hospital better than I do the stadium.	I know my way around the hospital better than i know my way around the stadium.	227104646	1478097653781	1478097653873	h	72
444311	4783335	I know my way around the hospital better than I do the stadium.	I know my way around the hospital better than i know my way around the stadium.	227104650	1478097654123	1478097654224	o	79
444311	4783335	I know my way around the hospital better than I do the stadium.	I know my way around the hospital better than i know my way around the stadium.	227104657	1478097654489	1478097654541	s	83
444311	4783335	I know my way around the hospital better than I do the stadium.	I know my way around the hospital better than i know my way around the stadium.	227104664	1478097654604	1478097654675	p	80
444311	4783335	I know my way around the hospital better than I do the stadium.	I know my way around the hospital better than i know my way around the stadium.	227104675	1478097654816	1478097654874	i	73
444311	4783335	I know my way around the hospital better than I do the stadium.	I know my way around the hospital better than i know my way around the stadium.	227104834	1478097655071	1478097655132	t	84
444311	4783335	I know my way around the hospital better than I do the stadium.	I know my way around the hospital better than i know my way around the stadium.	227104840	1478097655210	1478097655314	a	65
444311	4783335	I know my way around the hospital better than I do the stadium.	I know my way around the hospital better than i know my way around the stadium.	227104846	1478097655509	1478097655606	l	76
444311	4783335	I know my way around the hospital better than I do the stadium.	I know my way around the hospital better than i know my way around the stadium.	227104848	1478097657275	1478097657374	 	32
444311	4783335	I know my way around the hospital better than I do the stadium.	I know my way around the hospital better than i know my way around the stadium.	227104849	1478097657483	1478097657573	b	66
444311	4783335	I know my way around the hospital better than I do the stadium.	I know my way around the hospital better than i know my way around the stadium.	227104858	1478097657631	1478097657714	e	69
444311	4783335	I know my way around the hospital better than I do the stadium.	I know my way around the hospital better than i know my way around the stadium.	227104861	1478097657824	1478097657883	t	84
444311	4783335	I know my way around the hospital better than I do the stadium.	I know my way around the hospital better than i know my way around the stadium.	227104863	1478097657977	1478097658032	t	84
444311	4783335	I know my way around the hospital better than I do the stadium.	I know my way around the hospital better than i know my way around the stadium.	227104865	1478097658095	1478097658200	e	69
444311	4783335	I know my way around the hospital better than I do the stadium.	I know my way around the hospital better than i know my way around the stadium.	227104869	1478097658263	1478097658340	r	82
444311	4783335	I know my way around the hospital better than I do the stadium.	I know my way around the hospital better than i know my way around the stadium.	227104912	1478097658384	1478097658481	 	32
444311	4783335	I know my way around the hospital better than I do the stadium.	I know my way around the hospital better than i know my way around the stadium.	227104916	1478097658527	1478097658623	t	84
444311	4783335	I know my way around the hospital better than I do the stadium.	I know my way around the hospital better than i know my way around the stadium.	227104921	1478097658670	1478097658740	h	72
444311	4783335	I know my way around the hospital better than I do the stadium.	I know my way around the hospital better than i know my way around the stadium.	227104924	1478097658834	1478097658948	a	65
444311	4783335	I know my way around the hospital better than I do the stadium.	I know my way around the hospital better than i know my way around the stadium.	227104931	1478097659026	1478097659113	n	78
444311	4783335	I know my way around the hospital better than I do the stadium.	I know my way around the hospital better than i know my way around the stadium.	227104983	1478097659233	1478097659307	 	32
444311	4783335	I know my way around the hospital better than I do the stadium.	I know my way around the hospital better than i know my way around the stadium.	227104991	1478097659440	1478097659508	i	73
444311	4783335	I know my way around the hospital better than I do the stadium.	I know my way around the hospital better than i know my way around the stadium.	227104999	1478097659617	1478097659706	 	32
444311	4783335	I know my way around the hospital better than I do the stadium.	I know my way around the hospital better than i know my way around the stadium.	227105012	1478097659784	1478097659873	k	75
444311	4783335	I know my way around the hospital better than I do the stadium.	I know my way around the hospital better than i know my way around the stadium.	227105021	1478097659905	1478097659998	n	78
444311	4783335	I know my way around the hospital better than I do the stadium.	I know my way around the hospital better than i know my way around the stadium.	227105073	1478097660056	1478097660132	o	79
444311	4783335	I know my way around the hospital better than I do the stadium.	I know my way around the hospital better than i know my way around the stadium.	227105076	1478097660179	1478097660305	w	87
444311	4783335	I know my way around the hospital better than I do the stadium.	I know my way around the hospital better than i know my way around the stadium.	227105082	1478097660557	1478097660749	 	32
444311	4783335	I know my way around the hospital better than I do the stadium.	I know my way around the hospital better than i know my way around the stadium.	227105089	1478097660780	1478097660889	m	77
444311	4783335	I know my way around the hospital better than I do the stadium.	I know my way around the hospital better than i know my way around the stadium.	227105098	1478097661030	1478097661124	y	89
444311	4783335	I know my way around the hospital better than I do the stadium.	I know my way around the hospital better than i know my way around the stadium.	227105199	1478097661354	1478097661447	 	32
444311	4783335	I know my way around the hospital better than I do the stadium.	I know my way around the hospital better than i know my way around the stadium.	227105200	1478097661541	1478097661662	w	87
444311	4783335	I know my way around the hospital better than I do the stadium.	I know my way around the hospital better than i know my way around the stadium.	227105205	1478097661740	1478097661856	a	65
444311	4783335	I know my way around the hospital better than I do the stadium.	I know my way around the hospital better than i know my way around the stadium.	227105211	1478097661902	1478097661965	y	89
444311	4783335	I know my way around the hospital better than I do the stadium.	I know my way around the hospital better than i know my way around the stadium.	227105215	1478097662655	1478097662740	 	32
444311	4783335	I know my way around the hospital better than I do the stadium.	I know my way around the hospital better than i know my way around the stadium.	227105251	1478097662879	1478097663020	a	65
444311	4783335	I know my way around the hospital better than I do the stadium.	I know my way around the hospital better than i know my way around the stadium.	227105252	1478097663145	1478097663223	r	82
444311	4783335	I know my way around the hospital better than I do the stadium.	I know my way around the hospital better than i know my way around the stadium.	227105253	1478097663286	1478097663382	o	79
444311	4783335	I know my way around the hospital better than I do the stadium.	I know my way around the hospital better than i know my way around the stadium.	227105254	1478097663491	1478097663542	u	85
444311	4783335	I know my way around the hospital better than I do the stadium.	I know my way around the hospital better than i know my way around the stadium.	227105255	1478097663683	1478097663780	n	78
444311	4783335	I know my way around the hospital better than I do the stadium.	I know my way around the hospital better than i know my way around the stadium.	227105291	1478097663872	1478097663973	d	68
444311	4783335	I know my way around the hospital better than I do the stadium.	I know my way around the hospital better than i know my way around the stadium.	227105293	1478097664036	1478097664147	 	32
444311	4783335	I know my way around the hospital better than I do the stadium.	I know my way around the hospital better than i know my way around the stadium.	227105296	1478097664257	1478097664341	t	84
444311	4783335	I know my way around the hospital better than I do the stadium.	I know my way around the hospital better than i know my way around the stadium.	227105298	1478097664404	1478097664473	h	72
444311	4783335	I know my way around the hospital better than I do the stadium.	I know my way around the hospital better than i know my way around the stadium.	227105299	1478097664489	1478097664611	e	69
444311	4783335	I know my way around the hospital better than I do the stadium.	I know my way around the hospital better than i know my way around the stadium.	227105489	1478097664637	1478097664731	 	32
444311	4783335	I know my way around the hospital better than I do the stadium.	I know my way around the hospital better than i know my way around the stadium.	227105492	1478097664793	1478097664912	s	83
444311	4783335	I know my way around the hospital better than I do the stadium.	I know my way around the hospital better than i know my way around the stadium.	227105494	1478097664990	1478097665058	t	84
444311	4783335	I know my way around the hospital better than I do the stadium.	I know my way around the hospital better than i know my way around the stadium.	227105496	1478097665105	1478097665237	a	65
444311	4783335	I know my way around the hospital better than I do the stadium.	I know my way around the hospital better than i know my way around the stadium.	227105500	1478097667676	1478097667773	d	68
444311	4783335	I know my way around the hospital better than I do the stadium.	I know my way around the hospital better than i know my way around the stadium.	227105798	1478097669958	1478097670064	i	73
444311	4783335	I know my way around the hospital better than I do the stadium.	I know my way around the hospital better than i know my way around the stadium.	227105802	1478097670283	1478097670357	u	85
444311	4783335	I know my way around the hospital better than I do the stadium.	I know my way around the hospital better than i know my way around the stadium.	227105810	1478097670529	1478097670599	m	77
444311	4783335	I know my way around the hospital better than I do the stadium.	I know my way around the hospital better than i know my way around the stadium.	227105813	1478097671495	1478097671571	.	190
444311	4783374	Brian Mitchell will likely serve as Duce Staley's backup.	Brain Mitchell will likely serve as Duce staley's backup.	227106614	1478097683766	1478097684156	SHIFT	16
444311	4783374	Brian Mitchell will likely serve as Duce Staley's backup.	Brain Mitchell will likely serve as Duce staley's backup.	227106610	1478097683969	1478097684109	B	66
444311	4783374	Brian Mitchell will likely serve as Duce Staley's backup.	Brain Mitchell will likely serve as Duce staley's backup.	227106618	1478097684343	1478097684455	r	82
444311	4783374	Brian Mitchell will likely serve as Duce Staley's backup.	Brain Mitchell will likely serve as Duce staley's backup.	227106622	1478097684580	1478097684695	a	65
444311	4783374	Brian Mitchell will likely serve as Duce Staley's backup.	Brain Mitchell will likely serve as Duce staley's backup.	227106626	1478097684789	1478097684895	i	73
444311	4783374	Brian Mitchell will likely serve as Duce Staley's backup.	Brain Mitchell will likely serve as Duce staley's backup.	227106630	1478097685036	1478097685185	n	78
444311	4783374	Brian Mitchell will likely serve as Duce Staley's backup.	Brain Mitchell will likely serve as Duce staley's backup.	227106753	1478097685371	1478097685493	 	32
444311	4783374	Brian Mitchell will likely serve as Duce Staley's backup.	Brain Mitchell will likely serve as Duce staley's backup.	227106758	1478097686294	1478097686662	SHIFT	16
444311	4783374	Brian Mitchell will likely serve as Duce Staley's backup.	Brain Mitchell will likely serve as Duce staley's backup.	227106763	1478097686554	1478097686693	M	77
444311	4783374	Brian Mitchell will likely serve as Duce Staley's backup.	Brain Mitchell will likely serve as Duce staley's backup.	227106768	1478097686834	1478097686929	i	73
444311	4783374	Brian Mitchell will likely serve as Duce Staley's backup.	Brain Mitchell will likely serve as Duce staley's backup.	227106772	1478097687101	1478097687181	t	84
444311	4783374	Brian Mitchell will likely serve as Duce Staley's backup.	Brain Mitchell will likely serve as Duce staley's backup.	227106775	1478097687524	1478097687638	c	67
444311	4783374	Brian Mitchell will likely serve as Duce Staley's backup.	Brain Mitchell will likely serve as Duce staley's backup.	227106868	1478097687695	1478097687789	h	72
444311	4783374	Brian Mitchell will likely serve as Duce Staley's backup.	Brain Mitchell will likely serve as Duce staley's backup.	227106871	1478097687851	1478097687978	e	69
444311	4783374	Brian Mitchell will likely serve as Duce Staley's backup.	Brain Mitchell will likely serve as Duce staley's backup.	227106877	1478097688150	1478097688230	l	76
444311	4783374	Brian Mitchell will likely serve as Duce Staley's backup.	Brain Mitchell will likely serve as Duce staley's backup.	227106883	1478097688339	1478097688438	l	76
444311	4783374	Brian Mitchell will likely serve as Duce Staley's backup.	Brain Mitchell will likely serve as Duce staley's backup.	227106890	1478097688893	1478097689001	 	32
444311	4783374	Brian Mitchell will likely serve as Duce Staley's backup.	Brain Mitchell will likely serve as Duce staley's backup.	227106953	1478097689253	1478097689330	w	87
444311	4783374	Brian Mitchell will likely serve as Duce Staley's backup.	Brain Mitchell will likely serve as Duce staley's backup.	227106960	1478097689377	1478097689442	i	73
444311	4783374	Brian Mitchell will likely serve as Duce Staley's backup.	Brain Mitchell will likely serve as Duce staley's backup.	227106967	1478097689577	1478097689648	l	76
444311	4783374	Brian Mitchell will likely serve as Duce Staley's backup.	Brain Mitchell will likely serve as Duce staley's backup.	227106972	1478097689742	1478097689799	l	76
444311	4783374	Brian Mitchell will likely serve as Duce Staley's backup.	Brain Mitchell will likely serve as Duce staley's backup.	227106976	1478097689920	1478097690013	 	32
444311	4783374	Brian Mitchell will likely serve as Duce Staley's backup.	Brain Mitchell will likely serve as Duce staley's backup.	227107014	1478097690122	1478097690196	l	76
444311	4783374	Brian Mitchell will likely serve as Duce Staley's backup.	Brain Mitchell will likely serve as Duce staley's backup.	227107020	1478097690306	1478097690380	i	73
444311	4783374	Brian Mitchell will likely serve as Duce Staley's backup.	Brain Mitchell will likely serve as Duce staley's backup.	227107024	1478097690458	1478097690577	k	75
444311	4783374	Brian Mitchell will likely serve as Duce Staley's backup.	Brain Mitchell will likely serve as Duce staley's backup.	227107029	1478097690592	1478097690706	e	69
444311	4783374	Brian Mitchell will likely serve as Duce Staley's backup.	Brain Mitchell will likely serve as Duce staley's backup.	227107033	1478097690815	1478097690928	l	76
444311	4783374	Brian Mitchell will likely serve as Duce Staley's backup.	Brain Mitchell will likely serve as Duce staley's backup.	227107177	1478097691711	1478097691764	y	89
444311	4783374	Brian Mitchell will likely serve as Duce Staley's backup.	Brain Mitchell will likely serve as Duce staley's backup.	227107184	1478097691874	1478097691955	 	32
444311	4783374	Brian Mitchell will likely serve as Duce Staley's backup.	Brain Mitchell will likely serve as Duce staley's backup.	227107190	1478097692112	1478097692211	s	83
444311	4783374	Brian Mitchell will likely serve as Duce Staley's backup.	Brain Mitchell will likely serve as Duce staley's backup.	227107195	1478097692336	1478097692414	e	69
444311	4783374	Brian Mitchell will likely serve as Duce Staley's backup.	Brain Mitchell will likely serve as Duce staley's backup.	227107197	1478097692554	1478097692630	r	82
444311	4783374	Brian Mitchell will likely serve as Duce Staley's backup.	Brain Mitchell will likely serve as Duce staley's backup.	227107373	1478097692769	1478097692894	v	86
444311	4783374	Brian Mitchell will likely serve as Duce Staley's backup.	Brain Mitchell will likely serve as Duce staley's backup.	227107379	1478097692988	1478097693110	e	69
444311	4783374	Brian Mitchell will likely serve as Duce Staley's backup.	Brain Mitchell will likely serve as Duce staley's backup.	227107385	1478097693345	1478097693462	 	32
444311	4783374	Brian Mitchell will likely serve as Duce Staley's backup.	Brain Mitchell will likely serve as Duce staley's backup.	227107388	1478097693556	1478097693665	CAPS_LOCK	20
444311	4783374	Brian Mitchell will likely serve as Duce Staley's backup.	Brain Mitchell will likely serve as Duce staley's backup.	227107393	1478097693696	1478097693775	CAPS_LOCK	20
444311	4783374	Brian Mitchell will likely serve as Duce Staley's backup.	Brain Mitchell will likely serve as Duce staley's backup.	227107399	1478097693853	1478097693986	s	83
444311	4783374	Brian Mitchell will likely serve as Duce Staley's backup.	Brain Mitchell will likely serve as Duce staley's backup.	227107405	1478097695137	1478097695270	BKSP	8
444311	4783374	Brian Mitchell will likely serve as Duce Staley's backup.	Brain Mitchell will likely serve as Duce staley's backup.	227107410	1478097695379	1478097695538	CAPS_LOCK	20
444311	4783374	Brian Mitchell will likely serve as Duce Staley's backup.	Brain Mitchell will likely serve as Duce staley's backup.	227107414	1478097695604	1478097695791	A	65
444311	4783374	Brian Mitchell will likely serve as Duce Staley's backup.	Brain Mitchell will likely serve as Duce staley's backup.	227107633	1478097695932	1478097696037	S	83
444311	4783374	Brian Mitchell will likely serve as Duce Staley's backup.	Brain Mitchell will likely serve as Duce staley's backup.	227107638	1478097696305	1478097696396	 	32
444311	4783374	Brian Mitchell will likely serve as Duce Staley's backup.	Brain Mitchell will likely serve as Duce staley's backup.	227107642	1478097697963	1478097698071	BKSP	8
444311	4783374	Brian Mitchell will likely serve as Duce Staley's backup.	Brain Mitchell will likely serve as Duce staley's backup.	227107647	1478097698165	1478097698255	BKSP	8
444311	4783374	Brian Mitchell will likely serve as Duce Staley's backup.	Brain Mitchell will likely serve as Duce staley's backup.	227107651	1478097698366	1478097698409	BKSP	8
444311	4783374	Brian Mitchell will likely serve as Duce Staley's backup.	Brain Mitchell will likely serve as Duce staley's backup.	227107653	1478097698963	1478097699073	CAPS_LOCK	20
444311	4783374	Brian Mitchell will likely serve as Duce Staley's backup.	Brain Mitchell will likely serve as Duce staley's backup.	227107657	1478097699370	1478097699471	a	65
444311	4783374	Brian Mitchell will likely serve as Duce Staley's backup.	Brain Mitchell will likely serve as Duce staley's backup.	227107660	1478097699564	1478097699655	s	83
444311	4783374	Brian Mitchell will likely serve as Duce Staley's backup.	Brain Mitchell will likely serve as Duce staley's backup.	227107663	1478097699764	1478097699832	 	32
444311	4783374	Brian Mitchell will likely serve as Duce Staley's backup.	Brain Mitchell will likely serve as Duce staley's backup.	227107790	1478097700458	1478097700784	SHIFT	16
444311	4783374	Brian Mitchell will likely serve as Duce Staley's backup.	Brain Mitchell will likely serve as Duce staley's backup.	227107787	1478097700630	1478097700737	D	68
444311	4783374	Brian Mitchell will likely serve as Duce Staley's backup.	Brain Mitchell will likely serve as Duce staley's backup.	227107795	1478097701034	1478097701105	u	85
444311	4783374	Brian Mitchell will likely serve as Duce Staley's backup.	Brain Mitchell will likely serve as Duce staley's backup.	227107802	1478097701152	1478097701261	c	67
444311	4783374	Brian Mitchell will likely serve as Duce Staley's backup.	Brain Mitchell will likely serve as Duce staley's backup.	227107806	1478097701402	1478097701511	e	69
444311	4783374	Brian Mitchell will likely serve as Duce Staley's backup.	Brain Mitchell will likely serve as Duce staley's backup.	227107810	1478097702424	1478097702544	 	32
444311	4783374	Brian Mitchell will likely serve as Duce Staley's backup.	Brain Mitchell will likely serve as Duce staley's backup.	227107908	1478097702853	1478097702970	s	83
444311	4783374	Brian Mitchell will likely serve as Duce Staley's backup.	Brain Mitchell will likely serve as Duce staley's backup.	227107910	1478097703032	1478097703113	t	84
444311	4783374	Brian Mitchell will likely serve as Duce Staley's backup.	Brain Mitchell will likely serve as Duce staley's backup.	227107914	1478097703159	1478097703262	a	65
444311	4783374	Brian Mitchell will likely serve as Duce Staley's backup.	Brain Mitchell will likely serve as Duce staley's backup.	227107919	1478097704374	1478097704440	l	76
444311	4783374	Brian Mitchell will likely serve as Duce Staley's backup.	Brain Mitchell will likely serve as Duce staley's backup.	227107923	1478097704518	1478097704658	e	69
444311	4783374	Brian Mitchell will likely serve as Duce Staley's backup.	Brain Mitchell will likely serve as Duce staley's backup.	227108087	1478097704921	1478097705052	y	89
444311	4783374	Brian Mitchell will likely serve as Duce Staley's backup.	Brain Mitchell will likely serve as Duce staley's backup.	227108089	1478097706057	1478097706155	'	222
444311	4783374	Brian Mitchell will likely serve as Duce Staley's backup.	Brain Mitchell will likely serve as Duce staley's backup.	227108092	1478097706327	1478097706484	s	83
444311	4783374	Brian Mitchell will likely serve as Duce Staley's backup.	Brain Mitchell will likely serve as Duce staley's backup.	227108096	1478097706742	1478097706829	 	32
444311	4783374	Brian Mitchell will likely serve as Duce Staley's backup.	Brain Mitchell will likely serve as Duce staley's backup.	227108100	1478097707439	1478097707505	b	66
444311	4783374	Brian Mitchell will likely serve as Duce Staley's backup.	Brain Mitchell will likely serve as Duce staley's backup.	227108170	1478097707547	1478097707685	a	65
444311	4783374	Brian Mitchell will likely serve as Duce Staley's backup.	Brain Mitchell will likely serve as Duce staley's backup.	227108174	1478097707841	1478097707938	c	67
444311	4783374	Brian Mitchell will likely serve as Duce Staley's backup.	Brain Mitchell will likely serve as Duce staley's backup.	227108180	1478097708048	1478097708138	k	75
444311	4783374	Brian Mitchell will likely serve as Duce Staley's backup.	Brain Mitchell will likely serve as Duce staley's backup.	227108185	1478097708310	1478097708405	u	85
444311	4783374	Brian Mitchell will likely serve as Duce Staley's backup.	Brain Mitchell will likely serve as Duce staley's backup.	227108189	1478097708514	1478097708627	p	80
444311	4783374	Brian Mitchell will likely serve as Duce Staley's backup.	Brain Mitchell will likely serve as Duce staley's backup.	227108246	1478097709426	1478097709527	.	190
444311	4783424	I'll take them one at a time.	I'll take them one at a time,	227108714	1478097715634	1478097716632	SHIFT	16
444311	4783424	I'll take them one at a time.	I'll take them one at a time,	227108711	1478097716449	1478097716570	I	73
444311	4783424	I'll take them one at a time.	I'll take them one at a time,	227108718	1478097717052	1478097717122	'	222
444311	4783424	I'll take them one at a time.	I'll take them one at a time,	227108721	1478097717247	1478097717313	l	76
444311	4783424	I'll take them one at a time.	I'll take them one at a time,	227108728	1478097717751	1478097717838	l	76
444311	4783424	I'll take them one at a time.	I'll take them one at a time,	227108734	1478097718182	1478097718271	 	32
444311	4783424	I'll take them one at a time.	I'll take them one at a time,	227108789	1478097718674	1478097718737	t	84
444311	4783424	I'll take them one at a time.	I'll take them one at a time,	227108794	1478097718802	1478097718950	a	65
444311	4783424	I'll take them one at a time.	I'll take them one at a time,	227108799	1478097719013	1478097719089	k	75
444311	4783424	I'll take them one at a time.	I'll take them one at a time,	227108803	1478097719135	1478097719222	e	69
444311	4783424	I'll take them one at a time.	I'll take them one at a time,	227108808	1478097719269	1478097719388	 	32
444311	4783424	I'll take them one at a time.	I'll take them one at a time,	227108842	1478097719481	1478097719571	t	84
444311	4783424	I'll take them one at a time.	I'll take them one at a time,	227108845	1478097719634	1478097719696	h	72
444311	4783424	I'll take them one at a time.	I'll take them one at a time,	227108847	1478097719759	1478097719854	e	69
444311	4783424	I'll take them one at a time.	I'll take them one at a time,	227108850	1478097719930	1478097719984	m	77
444311	4783424	I'll take them one at a time.	I'll take them one at a time,	227108852	1478097720082	1478097720155	 	32
444311	4783424	I'll take them one at a time.	I'll take them one at a time,	227108893	1478097720234	1478097720327	o	79
444311	4783424	I'll take them one at a time.	I'll take them one at a time,	227108897	1478097720405	1478097720479	n	78
444311	4783424	I'll take them one at a time.	I'll take them one at a time,	227108902	1478097720572	1478097720678	e	69
444311	4783424	I'll take them one at a time.	I'll take them one at a time,	227108905	1478097720709	1478097720804	 	32
444311	4783424	I'll take them one at a time.	I'll take them one at a time,	227108907	1478097720898	1478097721026	a	65
444311	4783424	I'll take them one at a time.	I'll take them one at a time,	227108969	1478097721089	1478097721157	t	84
444311	4783424	I'll take them one at a time.	I'll take them one at a time,	227108971	1478097721282	1478097721377	 	32
444311	4783424	I'll take them one at a time.	I'll take them one at a time,	227108975	1478097721486	1478097721625	a	65
444311	4783424	I'll take them one at a time.	I'll take them one at a time,	227108980	1478097721688	1478097721779	 	32
444311	4783424	I'll take them one at a time.	I'll take them one at a time,	227108984	1478097722130	1478097722205	t	84
444311	4783424	I'll take them one at a time.	I'll take them one at a time,	227109057	1478097722266	1478097722346	i	73
444311	4783424	I'll take them one at a time.	I'll take them one at a time,	227109060	1478097722424	1478097722515	m	77
444311	4783424	I'll take them one at a time.	I'll take them one at a time,	227109063	1478097722504	1478097722594	e	69
444311	4783424	I'll take them one at a time.	I'll take them one at a time,	227109066	1478097722657	1478097722864	/	191
444311	4783424	I'll take them one at a time.	I'll take them one at a time,	227109071	1478097723098	1478097723225	BKSP	8
444311	4783424	I'll take them one at a time.	I'll take them one at a time,	227109078	1478097723696	1478097723761	,	188
444311	4783445	Can we have them until we move?	Can we have them until we move?	227109516	1478097730208	1478097730550	SHIFT	16
444311	4783445	Can we have them until we move?	Can we have them until we move?	227109512	1478097730416	1478097730535	C	67
444311	4783445	Can we have them until we move?	Can we have them until we move?	227109523	1478097730722	1478097730820	a	65
444311	4783445	Can we have them until we move?	Can we have them until we move?	227109530	1478097730930	1478097730973	n	78
444311	4783445	Can we have them until we move?	Can we have them until we move?	227109537	1478097731073	1478097731145	 	32
444311	4783445	Can we have them until we move?	Can we have them until we move?	227109543	1478097731207	1478097731304	w	87
444311	4783445	Can we have them until we move?	Can we have them until we move?	227109552	1478097731376	1478097731462	e	69
444311	4783445	Can we have them until we move?	Can we have them until we move?	227109554	1478097731493	1478097731562	 	32
444311	4783445	Can we have them until we move?	Can we have them until we move?	227109560	1478097731640	1478097731737	h	72
444311	4783445	Can we have them until we move?	Can we have them until we move?	227109568	1478097731752	1478097731876	a	65
444311	4783445	Can we have them until we move?	Can we have them until we move?	227109573	1478097731892	1478097731957	v	86
444311	4783445	Can we have them until we move?	Can we have them until we move?	227109619	1478097731999	1478097732079	e	69
444311	4783445	Can we have them until we move?	Can we have them until we move?	227109627	1478097732126	1478097732226	 	32
444311	4783445	Can we have them until we move?	Can we have them until we move?	227109633	1478097732272	1478097732354	t	84
444311	4783445	Can we have them until we move?	Can we have them until we move?	227109636	1478097732370	1478097732438	h	72
444311	4783445	Can we have them until we move?	Can we have them until we move?	227109638	1478097732517	1478097732635	e	69
444311	4783445	Can we have them until we move?	Can we have them until we move?	227109675	1478097732693	1478097732762	m	77
444311	4783445	Can we have them until we move?	Can we have them until we move?	227109680	1478097732856	1478097732945	 	32
444311	4783445	Can we have them until we move?	Can we have them until we move?	227109685	1478097733023	1478097733111	u	85
444311	4783445	Can we have them until we move?	Can we have them until we move?	227109689	1478097733173	1478097733277	n	78
444311	4783445	Can we have them until we move?	Can we have them until we move?	227109692	1478097733309	1478097733440	t	84
444311	4783445	Can we have them until we move?	Can we have them until we move?	227109727	1478097733434	1478097733504	i	73
444311	4783445	Can we have them until we move?	Can we have them until we move?	227109733	1478097733616	1478097733696	l	76
444311	4783445	Can we have them until we move?	Can we have them until we move?	227109740	1478097733790	1478097733877	 	32
444311	4783445	Can we have them until we move?	Can we have them until we move?	227109745	1478097733892	1478097733991	w	87
444311	4783445	Can we have them until we move?	Can we have them until we move?	227109750	1478097734038	1478097734143	e	69
444311	4783445	Can we have them until we move?	Can we have them until we move?	227109752	1478097734190	1478097734262	 	32
444311	4783445	Can we have them until we move?	Can we have them until we move?	227109804	1478097734339	1478097734438	m	77
444311	4783445	Can we have them until we move?	Can we have them until we move?	227109805	1478097734597	1478097734687	o	79
444311	4783445	Can we have them until we move?	Can we have them until we move?	227109807	1478097734956	1478097735093	v	86
444311	4783445	Can we have them until we move?	Can we have them until we move?	227109810	1478097735234	1478097735337	e	69
444311	4783445	Can we have them until we move?	Can we have them until we move?	227109814	1478097735384	1478097735710	SHIFT	16
444311	4783457	Their key decision maker did not show which is not a good sign.	Their key decision maker did not show which is not a good sign.	227112151	1478097735603	1478097773053	?	191
444311	4783457	Their key decision maker did not show which is not a good sign.	Their key decision maker did not show which is not a good sign.	227110877	1478097751794	1478097752157	SHIFT	16
444311	4783457	Their key decision maker did not show which is not a good sign.	Their key decision maker did not show which is not a good sign.	227110873	1478097752020	1478097752126	T	84
444311	4783457	Their key decision maker did not show which is not a good sign.	Their key decision maker did not show which is not a good sign.	227110882	1478097752376	1478097752446	h	72
444311	4783457	Their key decision maker did not show which is not a good sign.	Their key decision maker did not show which is not a good sign.	227110886	1478097752524	1478097752658	e	69
444311	4783457	Their key decision maker did not show which is not a good sign.	Their key decision maker did not show which is not a good sign.	227110890	1478097752845	1478097752921	i	73
444311	4783457	Their key decision maker did not show which is not a good sign.	Their key decision maker did not show which is not a good sign.	227110895	1478097753015	1478097753125	r	82
444311	4783457	Their key decision maker did not show which is not a good sign.	Their key decision maker did not show which is not a good sign.	227110982	1478097753276	1478097753361	 	32
444311	4783457	Their key decision maker did not show which is not a good sign.	Their key decision maker did not show which is not a good sign.	227110986	1478097753767	1478097753860	k	75
444311	4783457	Their key decision maker did not show which is not a good sign.	Their key decision maker did not show which is not a good sign.	227110987	1478097754377	1478097754459	e	69
444311	4783457	Their key decision maker did not show which is not a good sign.	Their key decision maker did not show which is not a good sign.	227110988	1478097754538	1478097754619	y	89
444311	4783457	Their key decision maker did not show which is not a good sign.	Their key decision maker did not show which is not a good sign.	227110989	1478097754744	1478097754844	 	32
444311	4783457	Their key decision maker did not show which is not a good sign.	Their key decision maker did not show which is not a good sign.	227111073	1478097754963	1478097755075	d	68
444311	4783457	Their key decision maker did not show which is not a good sign.	Their key decision maker did not show which is not a good sign.	227111078	1478097755169	1478097755270	e	69
444311	4783457	Their key decision maker did not show which is not a good sign.	Their key decision maker did not show which is not a good sign.	227111081	1478097755965	1478097756059	c	67
444311	4783457	Their key decision maker did not show which is not a good sign.	Their key decision maker did not show which is not a good sign.	227111084	1478097756388	1478097756455	i	73
444311	4783457	Their key decision maker did not show which is not a good sign.	Their key decision maker did not show which is not a good sign.	227111087	1478097756564	1478097756675	s	83
444311	4783457	Their key decision maker did not show which is not a good sign.	Their key decision maker did not show which is not a good sign.	227111138	1478097756879	1478097756969	i	73
444311	4783457	Their key decision maker did not show which is not a good sign.	Their key decision maker did not show which is not a good sign.	227111142	1478097757078	1478097757185	o	79
444311	4783457	Their key decision maker did not show which is not a good sign.	Their key decision maker did not show which is not a good sign.	227111146	1478097757263	1478097757376	n	78
444311	4783457	Their key decision maker did not show which is not a good sign.	Their key decision maker did not show which is not a good sign.	227111150	1478097757516	1478097757586	 	32
444311	4783457	Their key decision maker did not show which is not a good sign.	Their key decision maker did not show which is not a good sign.	227111154	1478097757758	1478097757860	m	77
444311	4783457	Their key decision maker did not show which is not a good sign.	Their key decision maker did not show which is not a good sign.	227111244	1478097757954	1478097758065	a	65
444311	4783457	Their key decision maker did not show which is not a good sign.	Their key decision maker did not show which is not a good sign.	227111250	1478097758443	1478097758520	k	75
444311	4783457	Their key decision maker did not show which is not a good sign.	Their key decision maker did not show which is not a good sign.	227111252	1478097758645	1478097758799	e	69
444311	4783457	Their key decision maker did not show which is not a good sign.	Their key decision maker did not show which is not a good sign.	227111257	1478097759002	1478097759203	r	82
444311	4783457	Their key decision maker did not show which is not a good sign.	Their key decision maker did not show which is not a good sign.	227111261	1478097759475	1478097759575	 	32
444311	4783457	Their key decision maker did not show which is not a good sign.	Their key decision maker did not show which is not a good sign.	227111368	1478097760234	1478097760320	d	68
444311	4783457	Their key decision maker did not show which is not a good sign.	Their key decision maker did not show which is not a good sign.	227111372	1478097760538	1478097760603	i	73
444311	4783457	Their key decision maker did not show which is not a good sign.	Their key decision maker did not show which is not a good sign.	227111376	1478097760666	1478097760753	d	68
444311	4783457	Their key decision maker did not show which is not a good sign.	Their key decision maker did not show which is not a good sign.	227111381	1478097760847	1478097760944	n	78
444311	4783457	Their key decision maker did not show which is not a good sign.	Their key decision maker did not show which is not a good sign.	227111387	1478097761406	1478097761523	BKSP	8
444311	4783457	Their key decision maker did not show which is not a good sign.	Their key decision maker did not show which is not a good sign.	227111396	1478097761711	1478097761787	 	32
444311	4783457	Their key decision maker did not show which is not a good sign.	Their key decision maker did not show which is not a good sign.	227111445	1478097761939	1478097762035	n	78
444311	4783457	Their key decision maker did not show which is not a good sign.	Their key decision maker did not show which is not a good sign.	227111452	1478097762144	1478097762204	o	79
444311	4783457	Their key decision maker did not show which is not a good sign.	Their key decision maker did not show which is not a good sign.	227111457	1478097762297	1478097762385	t	84
444311	4783457	Their key decision maker did not show which is not a good sign.	Their key decision maker did not show which is not a good sign.	227111462	1478097762463	1478097762560	 	32
444311	4783457	Their key decision maker did not show which is not a good sign.	Their key decision maker did not show which is not a good sign.	227111467	1478097762856	1478097762968	s	83
444311	4783457	Their key decision maker did not show which is not a good sign.	Their key decision maker did not show which is not a good sign.	227111691	1478097762978	1478097763061	h	72
444311	4783457	Their key decision maker did not show which is not a good sign.	Their key decision maker did not show which is not a good sign.	227111696	1478097763295	1478097763385	w	87
444311	4783457	Their key decision maker did not show which is not a good sign.	Their key decision maker did not show which is not a good sign.	227111700	1478097763401	1478097763540	o	79
444311	4783457	Their key decision maker did not show which is not a good sign.	Their key decision maker did not show which is not a good sign.	227111704	1478097763806	1478097763893	BKSP	8
444311	4783457	Their key decision maker did not show which is not a good sign.	Their key decision maker did not show which is not a good sign.	227111707	1478097763971	1478097764091	BKSP	8
444311	4783457	Their key decision maker did not show which is not a good sign.	Their key decision maker did not show which is not a good sign.	227111710	1478097764705	1478097764809	BKSP	8
444311	4783457	Their key decision maker did not show which is not a good sign.	Their key decision maker did not show which is not a good sign.	227111713	1478097764887	1478097764969	BKSP	8
444311	4783457	Their key decision maker did not show which is not a good sign.	Their key decision maker did not show which is not a good sign.	227111715	1478097765525	1478097765635	BKSP	8
444311	4783457	Their key decision maker did not show which is not a good sign.	Their key decision maker did not show which is not a good sign.	227111718	1478097766293	1478097766370	 	32
444311	4783457	Their key decision maker did not show which is not a good sign.	Their key decision maker did not show which is not a good sign.	227111721	1478097766526	1478097766626	s	83
444311	4783457	Their key decision maker did not show which is not a good sign.	Their key decision maker did not show which is not a good sign.	227111771	1478097766657	1478097766742	h	72
444311	4783457	Their key decision maker did not show which is not a good sign.	Their key decision maker did not show which is not a good sign.	227111774	1478097766836	1478097766935	o	79
444311	4783457	Their key decision maker did not show which is not a good sign.	Their key decision maker did not show which is not a good sign.	227111778	1478097766966	1478097767068	w	87
444311	4783457	Their key decision maker did not show which is not a good sign.	Their key decision maker did not show which is not a good sign.	227111784	1478097767162	1478097767274	 	32
444311	4783457	Their key decision maker did not show which is not a good sign.	Their key decision maker did not show which is not a good sign.	227111789	1478097767824	1478097767925	w	87
444311	4783457	Their key decision maker did not show which is not a good sign.	Their key decision maker did not show which is not a good sign.	227111860	1478097767982	1478097768093	h	72
444311	4783457	Their key decision maker did not show which is not a good sign.	Their key decision maker did not show which is not a good sign.	227111862	1478097768125	1478097768241	i	73
444311	4783457	Their key decision maker did not show which is not a good sign.	Their key decision maker did not show which is not a good sign.	227111866	1478097768288	1478097768393	c	67
444311	4783457	Their key decision maker did not show which is not a good sign.	Their key decision maker did not show which is not a good sign.	227111868	1478097768424	1478097768509	h	72
444311	4783457	Their key decision maker did not show which is not a good sign.	Their key decision maker did not show which is not a good sign.	227111870	1478097768931	1478097769034	 	32
444311	4783457	Their key decision maker did not show which is not a good sign.	Their key decision maker did not show which is not a good sign.	227111919	1478097769169	1478097769268	i	73
444311	4783457	Their key decision maker did not show which is not a good sign.	Their key decision maker did not show which is not a good sign.	227111923	1478097769299	1478097769385	s	83
444311	4783457	Their key decision maker did not show which is not a good sign.	Their key decision maker did not show which is not a good sign.	227111927	1478097769464	1478097769528	 	32
444311	4783457	Their key decision maker did not show which is not a good sign.	Their key decision maker did not show which is not a good sign.	227111929	1478097769667	1478097769752	n	78
444311	4783457	Their key decision maker did not show which is not a good sign.	Their key decision maker did not show which is not a good sign.	227111932	1478097769846	1478097769968	o	79
444311	4783457	Their key decision maker did not show which is not a good sign.	Their key decision maker did not show which is not a good sign.	227111984	1478097770244	1478097770342	t	84
444311	4783457	Their key decision maker did not show which is not a good sign.	Their key decision maker did not show which is not a good sign.	227111987	1478097770436	1478097770525	 	32
444311	4783457	Their key decision maker did not show which is not a good sign.	Their key decision maker did not show which is not a good sign.	227111991	1478097770634	1478097770767	a	65
444311	4783457	Their key decision maker did not show which is not a good sign.	Their key decision maker did not show which is not a good sign.	227111996	1478097770767	1478097770876	 	32
444311	4783457	Their key decision maker did not show which is not a good sign.	Their key decision maker did not show which is not a good sign.	227112004	1478097771017	1478097771111	g	71
444311	4783457	Their key decision maker did not show which is not a good sign.	Their key decision maker did not show which is not a good sign.	227112034	1478097771189	1478097771269	o	79
444311	4783457	Their key decision maker did not show which is not a good sign.	Their key decision maker did not show which is not a good sign.	227112039	1478097771347	1478097771460	o	79
444311	4783457	Their key decision maker did not show which is not a good sign.	Their key decision maker did not show which is not a good sign.	227112043	1478097771569	1478097771675	d	68
444311	4783457	Their key decision maker did not show which is not a good sign.	Their key decision maker did not show which is not a good sign.	227112049	1478097771768	1478097771853	 	32
444311	4783457	Their key decision maker did not show which is not a good sign.	Their key decision maker did not show which is not a good sign.	227112054	1478097771994	1478097772092	s	83
444311	4783457	Their key decision maker did not show which is not a good sign.	Their key decision maker did not show which is not a good sign.	227112145	1478097772123	1478097772241	i	73
444311	4783457	Their key decision maker did not show which is not a good sign.	Their key decision maker did not show which is not a good sign.	227112147	1478097772350	1478097772467	g	71
444311	4783457	Their key decision maker did not show which is not a good sign.	Their key decision maker did not show which is not a good sign.	227112149	1478097772514	1478097772625	n	78
444311	4783457	Their key decision maker did not show which is not a good sign.	Their key decision maker did not show which is not a good sign.	227112153	1478097773350	1478097773408	\	220
444311	4783457	Their key decision maker did not show which is not a good sign.	Their key decision maker did not show which is not a good sign.	227112155	1478097773944	1478097774020	.	190
444311	4783457	Their key decision maker did not show which is not a good sign.	Their key decision maker did not show which is not a good sign.	227112277	1478097774857	1478097774936	BKSP	8
444311	4783457	Their key decision maker did not show which is not a good sign.	Their key decision maker did not show which is not a good sign.	227112280	1478097774999	1478097775218	BKSP	8
444311	4783457	Their key decision maker did not show which is not a good sign.	Their key decision maker did not show which is not a good sign.	227112285	1478097775374	1478097775467	BKSP	8
444311	4783457	Their key decision maker did not show which is not a good sign.	Their key decision maker did not show which is not a good sign.	227112291	1478097775978	1478097776044	.	190
444311	4783510	We're not a lock for the pole.	We're not a lock for the pole.	227112726	1478097782211	1478097782645	SHIFT	16
444311	4783510	We're not a lock for the pole.	We're not a lock for the pole.	227112723	1478097782460	1478097782645	W	87
444311	4783510	We're not a lock for the pole.	We're not a lock for the pole.	227112730	1478097783419	1478097783540	e	69
444311	4783510	We're not a lock for the pole.	We're not a lock for the pole.	227112735	1478097783669	1478097783752	'	222
444311	4783510	We're not a lock for the pole.	We're not a lock for the pole.	227112740	1478097783846	1478097783952	r	82
444311	4783510	We're not a lock for the pole.	We're not a lock for the pole.	227112746	1478097784140	1478097784251	e	69
444311	4783510	We're not a lock for the pole.	We're not a lock for the pole.	227112840	1478097784862	1478097784958	 	32
444311	4783510	We're not a lock for the pole.	We're not a lock for the pole.	227112844	1478097785302	1478097785369	n	78
444311	4783510	We're not a lock for the pole.	We're not a lock for the pole.	227112848	1478097785463	1478097785567	o	79
444311	4783510	We're not a lock for the pole.	We're not a lock for the pole.	227112853	1478097785645	1478097785727	t	84
444311	4783510	We're not a lock for the pole.	We're not a lock for the pole.	227112858	1478097785805	1478097785893	 	32
444311	4783510	We're not a lock for the pole.	We're not a lock for the pole.	227112905	1478097786028	1478097786124	a	65
444311	4783510	We're not a lock for the pole.	We're not a lock for the pole.	227112913	1478097786186	1478097786260	 	32
444311	4783510	We're not a lock for the pole.	We're not a lock for the pole.	227112919	1478097786573	1478097786660	l	76
444311	4783510	We're not a lock for the pole.	We're not a lock for the pole.	227112925	1478097786785	1478097786853	o	79
444311	4783510	We're not a lock for the pole.	We're not a lock for the pole.	227112931	1478097786978	1478097787074	c	67
444311	4783510	We're not a lock for the pole.	We're not a lock for the pole.	227112973	1478097787181	1478097787244	k	75
444311	4783510	We're not a lock for the pole.	We're not a lock for the pole.	227112976	1478097787385	1478097787500	 	32
444311	4783510	We're not a lock for the pole.	We're not a lock for the pole.	227112982	1478097787661	1478097787759	f	70
444311	4783510	We're not a lock for the pole.	We're not a lock for the pole.	227112986	1478097787806	1478097787907	o	79
444311	4783510	We're not a lock for the pole.	We're not a lock for the pole.	227112989	1478097788048	1478097788110	r	82
444311	4783510	We're not a lock for the pole.	We're not a lock for the pole.	227113048	1478097788168	1478097788274	 	32
444311	4783510	We're not a lock for the pole.	We're not a lock for the pole.	227113051	1478097788793	1478097788875	t	84
444311	4783510	We're not a lock for the pole.	We're not a lock for the pole.	227113055	1478097789032	1478097789118	h	72
444311	4783510	We're not a lock for the pole.	We're not a lock for the pole.	227113061	1478097789212	1478097789324	e	69
444311	4783510	We're not a lock for the pole.	We're not a lock for the pole.	227113067	1478097789402	1478097789485	 	32
444311	4783510	We're not a lock for the pole.	We're not a lock for the pole.	227113109	1478097789684	1478097789807	p	80
444311	4783510	We're not a lock for the pole.	We're not a lock for the pole.	227113112	1478097789869	1478097789937	o	79
444311	4783510	We're not a lock for the pole.	We're not a lock for the pole.	227113118	1478097790047	1478097790173	l	76
444311	4783510	We're not a lock for the pole.	We're not a lock for the pole.	227113122	1478097790204	1478097790275	e	69
444311	4783510	We're not a lock for the pole.	We're not a lock for the pole.	227113129	1478097790385	1478097790501	s	83
444311	4783510	We're not a lock for the pole.	We're not a lock for the pole.	227113176	1478097791289	1478097791375	BKSP	8
444311	4783510	We're not a lock for the pole.	We're not a lock for the pole.	227113178	1478097791598	1478097791676	.	190
444311	4783529	One of the Hottest Gifts for Holiday 2001.	One of the hottest gifts for the holiday 2001.	227113604	1478097797893	1478097798432	SHIFT	16
444311	4783529	One of the Hottest Gifts for Holiday 2001.	One of the hottest gifts for the holiday 2001.	227113608	1478097798315	1478097798448	O	79
444311	4783529	One of the Hottest Gifts for Holiday 2001.	One of the hottest gifts for the holiday 2001.	227113613	1478097798942	1478097799035	n	78
444311	4783529	One of the Hottest Gifts for Holiday 2001.	One of the hottest gifts for the holiday 2001.	227113617	1478097799160	1478097799267	e	69
444311	4783529	One of the Hottest Gifts for Holiday 2001.	One of the hottest gifts for the holiday 2001.	227113621	1478097799376	1478097799467	 	32
444311	4783529	One of the Hottest Gifts for Holiday 2001.	One of the hottest gifts for the holiday 2001.	227113625	1478097799624	1478097799709	o	79
444311	4783529	One of the Hottest Gifts for Holiday 2001.	One of the hottest gifts for the holiday 2001.	227113657	1478097799817	1478097799916	f	70
444311	4783529	One of the Hottest Gifts for Holiday 2001.	One of the hottest gifts for the holiday 2001.	227113661	1478097799963	1478097800051	 	32
444311	4783529	One of the Hottest Gifts for Holiday 2001.	One of the hottest gifts for the holiday 2001.	227113668	1478097800130	1478097800224	t	84
444311	4783529	One of the Hottest Gifts for Holiday 2001.	One of the hottest gifts for the holiday 2001.	227113674	1478097800287	1478097800380	h	72
444311	4783529	One of the Hottest Gifts for Holiday 2001.	One of the hottest gifts for the holiday 2001.	227113680	1478097800474	1478097800567	e	69
444311	4783529	One of the Hottest Gifts for Holiday 2001.	One of the hottest gifts for the holiday 2001.	227113741	1478097800678	1478097800751	 	32
444311	4783529	One of the Hottest Gifts for Holiday 2001.	One of the hottest gifts for the holiday 2001.	227113744	1478097801233	1478097801309	h	72
444311	4783529	One of the Hottest Gifts for Holiday 2001.	One of the hottest gifts for the holiday 2001.	227113747	1478097801387	1478097801485	o	79
444311	4783529	One of the Hottest Gifts for Holiday 2001.	One of the hottest gifts for the holiday 2001.	227113751	1478097801531	1478097801609	t	84
444311	4783529	One of the Hottest Gifts for Holiday 2001.	One of the hottest gifts for the holiday 2001.	227113757	1478097802072	1478097802159	t	84
444311	4783529	One of the Hottest Gifts for Holiday 2001.	One of the hottest gifts for the holiday 2001.	227113920	1478097802404	1478097802523	e	69
444311	4783529	One of the Hottest Gifts for Holiday 2001.	One of the hottest gifts for the holiday 2001.	227113922	1478097802726	1478097802839	s	83
444311	4783529	One of the Hottest Gifts for Holiday 2001.	One of the hottest gifts for the holiday 2001.	227113924	1478097803261	1478097803367	 	32
444311	4783529	One of the Hottest Gifts for Holiday 2001.	One of the hottest gifts for the holiday 2001.	227113927	1478097803648	1478097803773	BKSP	8
444311	4783529	One of the Hottest Gifts for Holiday 2001.	One of the hottest gifts for the holiday 2001.	227113933	1478097803851	1478097803910	BKSP	8
444311	4783529	One of the Hottest Gifts for Holiday 2001.	One of the hottest gifts for the holiday 2001.	227113937	1478097804778	1478097804890	s	83
444311	4783529	One of the Hottest Gifts for Holiday 2001.	One of the hottest gifts for the holiday 2001.	227113943	1478097805077	1478097805183	t	84
444311	4783529	One of the Hottest Gifts for Holiday 2001.	One of the hottest gifts for the holiday 2001.	227114018	1478097805371	1478097805561	 	32
444311	4783529	One of the Hottest Gifts for Holiday 2001.	One of the hottest gifts for the holiday 2001.	227114021	1478097806078	1478097806158	g	71
444311	4783529	One of the Hottest Gifts for Holiday 2001.	One of the hottest gifts for the holiday 2001.	227114023	1478097806329	1478097806403	i	73
444311	4783529	One of the Hottest Gifts for Holiday 2001.	One of the hottest gifts for the holiday 2001.	227114024	1478097806465	1478097806557	f	70
444311	4783529	One of the Hottest Gifts for Holiday 2001.	One of the hottest gifts for the holiday 2001.	227114025	1478097806792	1478097806876	t	84
444311	4783529	One of the Hottest Gifts for Holiday 2001.	One of the hottest gifts for the holiday 2001.	227114093	1478097807027	1478097807139	s	83
444311	4783529	One of the Hottest Gifts for Holiday 2001.	One of the hottest gifts for the holiday 2001.	227114098	1478097807389	1478097807500	 	32
444311	4783529	One of the Hottest Gifts for Holiday 2001.	One of the hottest gifts for the holiday 2001.	227114103	1478097807962	1478097808026	f	70
444311	4783529	One of the Hottest Gifts for Holiday 2001.	One of the hottest gifts for the holiday 2001.	227114108	1478097808089	1478097808185	o	79
444311	4783529	One of the Hottest Gifts for Holiday 2001.	One of the hottest gifts for the holiday 2001.	227114112	1478097808232	1478097808325	r	82
444311	4783529	One of the Hottest Gifts for Holiday 2001.	One of the hottest gifts for the holiday 2001.	227114125	1478097808367	1478097808456	 	32
444311	4783529	One of the Hottest Gifts for Holiday 2001.	One of the hottest gifts for the holiday 2001.	227114128	1478097808490	1478097808559	t	84
444311	4783529	One of the Hottest Gifts for Holiday 2001.	One of the hottest gifts for the holiday 2001.	227114131	1478097808606	1478097808691	h	72
444311	4783529	One of the Hottest Gifts for Holiday 2001.	One of the hottest gifts for the holiday 2001.	227114133	1478097808707	1478097808815	e	69
444311	4783529	One of the Hottest Gifts for Holiday 2001.	One of the hottest gifts for the holiday 2001.	227114136	1478097808878	1478097808967	 	32
444311	4783529	One of the Hottest Gifts for Holiday 2001.	One of the hottest gifts for the holiday 2001.	227114192	1478097809104	1478097809185	h	72
444311	4783529	One of the Hottest Gifts for Holiday 2001.	One of the hottest gifts for the holiday 2001.	227114195	1478097809310	1478097809391	o	79
444311	4783529	One of the Hottest Gifts for Holiday 2001.	One of the hottest gifts for the holiday 2001.	227114199	1478097809470	1478097809542	l	76
444311	4783529	One of the Hottest Gifts for Holiday 2001.	One of the hottest gifts for the holiday 2001.	227114203	1478097809651	1478097809734	i	73
444311	4783529	One of the Hottest Gifts for Holiday 2001.	One of the hottest gifts for the holiday 2001.	227114206	1478097809953	1478097810058	d	68
444311	4783529	One of the Hottest Gifts for Holiday 2001.	One of the hottest gifts for the holiday 2001.	227114363	1478097810168	1478097810288	a	65
444311	4783529	One of the Hottest Gifts for Holiday 2001.	One of the hottest gifts for the holiday 2001.	227114367	1478097810304	1478097810400	y	89
444311	4783529	One of the Hottest Gifts for Holiday 2001.	One of the hottest gifts for the holiday 2001.	227114368	1478097811097	1478097811207	 	32
444311	4783529	One of the Hottest Gifts for Holiday 2001.	One of the hottest gifts for the holiday 2001.	227114372	1478097812679	1478097812776	2	50
444311	4783529	One of the Hottest Gifts for Holiday 2001.	One of the hottest gifts for the holiday 2001.	227114378	1478097813073	1478097813135	0	48
444311	4783529	One of the Hottest Gifts for Holiday 2001.	One of the hottest gifts for the holiday 2001.	227114511	1478097813223	1478097813318	0	48
444311	4783529	One of the Hottest Gifts for Holiday 2001.	One of the hottest gifts for the holiday 2001.	227114514	1478097813615	1478097813718	1	49
444311	4783529	One of the Hottest Gifts for Holiday 2001.	One of the hottest gifts for the holiday 2001.	227114517	1478097814962	1478097815027	.	190
444311	4783561	My husband Jeff and I are planning on attending.	My husband Jeff and i are planning on attending.	227115015	1478097822085	1478097822765	SHIFT	16
444311	4783561	My husband Jeff and I are planning on attending.	My husband Jeff and i are planning on attending.	227115012	1478097822617	1478097822749	M	77
444311	4783561	My husband Jeff and I are planning on attending.	My husband Jeff and i are planning on attending.	227115016	1478097823109	1478097823193	y	89
444311	4783561	My husband Jeff and I are planning on attending.	My husband Jeff and i are planning on attending.	227115019	1478097823302	1478097823407	 	32
444311	4783561	My husband Jeff and I are planning on attending.	My husband Jeff and i are planning on attending.	227115021	1478097823532	1478097823633	h	72
444311	4783561	My husband Jeff and I are planning on attending.	My husband Jeff and i are planning on attending.	227115024	1478097823670	1478097823768	u	85
444311	4783561	My husband Jeff and I are planning on attending.	My husband Jeff and i are planning on attending.	227115091	1478097823841	1478097823965	s	83
444311	4783561	My husband Jeff and I are planning on attending.	My husband Jeff and i are planning on attending.	227115096	1478097824425	1478097824477	b	66
444311	4783561	My husband Jeff and I are planning on attending.	My husband Jeff and i are planning on attending.	227115101	1478097824555	1478097824689	a	65
444311	4783561	My husband Jeff and I are planning on attending.	My husband Jeff and i are planning on attending.	227115106	1478097824689	1478097824799	n	78
444311	4783561	My husband Jeff and I are planning on attending.	My husband Jeff and i are planning on attending.	227115114	1478097824898	1478097825015	d	68
444311	4783561	My husband Jeff and I are planning on attending.	My husband Jeff and i are planning on attending.	227115235	1478097825389	1478097825539	 	32
444311	4783561	My husband Jeff and I are planning on attending.	My husband Jeff and i are planning on attending.	227115249	1478097826086	1478097826750	SHIFT	16
444311	4783561	My husband Jeff and I are planning on attending.	My husband Jeff and i are planning on attending.	227115241	1478097826635	1478097826734	J	74
444311	4783561	My husband Jeff and I are planning on attending.	My husband Jeff and i are planning on attending.	227115254	1478097826891	1478097826990	e	69
444311	4783561	My husband Jeff and I are planning on attending.	My husband Jeff and i are planning on attending.	227115259	1478097827131	1478097827224	f	70
444311	4783561	My husband Jeff and I are planning on attending.	My husband Jeff and i are planning on attending.	227115263	1478097827318	1478097827424	f	70
444311	4783561	My husband Jeff and I are planning on attending.	My husband Jeff and i are planning on attending.	227115277	1478097827549	1478097827642	 	32
444311	4783561	My husband Jeff and I are planning on attending.	My husband Jeff and i are planning on attending.	227115282	1478097827836	1478097827971	a	65
444311	4783561	My husband Jeff and I are planning on attending.	My husband Jeff and i are planning on attending.	227115287	1478097828018	1478097828069	n	78
444311	4783561	My husband Jeff and I are planning on attending.	My husband Jeff and i are planning on attending.	227115295	1478097828178	1478097828274	d	68
444311	4783561	My husband Jeff and I are planning on attending.	My husband Jeff and i are planning on attending.	227115346	1478097828258	1478097828342	 	32
444311	4783561	My husband Jeff and I are planning on attending.	My husband Jeff and i are planning on attending.	227115351	1478097828467	1478097828538	i	73
444311	4783561	My husband Jeff and I are planning on attending.	My husband Jeff and i are planning on attending.	227115355	1478097828648	1478097828726	 	32
444311	4783561	My husband Jeff and I are planning on attending.	My husband Jeff and i are planning on attending.	227115362	1478097828777	1478097828904	a	65
444311	4783561	My husband Jeff and I are planning on attending.	My husband Jeff and i are planning on attending.	227115370	1478097828998	1478097829108	r	82
444311	4783561	My husband Jeff and I are planning on attending.	My husband Jeff and i are planning on attending.	227115377	1478097829186	1478097829284	e	69
444311	4783561	My husband Jeff and I are planning on attending.	My husband Jeff and i are planning on attending.	227115423	1478097829362	1478097829466	 	32
444311	4783561	My husband Jeff and I are planning on attending.	My husband Jeff and i are planning on attending.	227115429	1478097829607	1478097829716	p	80
444311	4783561	My husband Jeff and I are planning on attending.	My husband Jeff and i are planning on attending.	227115435	1478097829778	1478097829883	l	76
444311	4783561	My husband Jeff and I are planning on attending.	My husband Jeff and i are planning on attending.	227115440	1478097829924	1478097830071	a	65
444311	4783561	My husband Jeff and I are planning on attending.	My husband Jeff and i are planning on attending.	227115448	1478097830117	1478097830176	n	78
444311	4783561	My husband Jeff and I are planning on attending.	My husband Jeff and i are planning on attending.	227115486	1478097830286	1478097830368	n	78
444311	4783561	My husband Jeff and I are planning on attending.	My husband Jeff and i are planning on attending.	227115489	1478097830477	1478097830567	i	73
444311	4783561	My husband Jeff and I are planning on attending.	My husband Jeff and i are planning on attending.	227115493	1478097830645	1478097830759	n	78
444311	4783561	My husband Jeff and I are planning on attending.	My husband Jeff and i are planning on attending.	227115496	1478097830749	1478097830866	g	71
444311	4783561	My husband Jeff and I are planning on attending.	My husband Jeff and i are planning on attending.	227115500	1478097830913	1478097831031	 	32
444311	4783561	My husband Jeff and I are planning on attending.	My husband Jeff and i are planning on attending.	227115559	1478097831541	1478097831666	o	79
444311	4783561	My husband Jeff and I are planning on attending.	My husband Jeff and i are planning on attending.	227115561	1478097831759	1478097831827	n	78
444311	4783561	My husband Jeff and I are planning on attending.	My husband Jeff and i are planning on attending.	227115565	1478097831921	1478097832033	 	32
444311	4783561	My husband Jeff and I are planning on attending.	My husband Jeff and i are planning on attending.	227115567	1478097832111	1478097832254	a	65
444311	4783561	My husband Jeff and I are planning on attending.	My husband Jeff and i are planning on attending.	227115573	1478097832301	1478097832357	t	84
444311	4783561	My husband Jeff and I are planning on attending.	My husband Jeff and i are planning on attending.	227115618	1478097832446	1478097832518	t	84
444311	4783561	My husband Jeff and I are planning on attending.	My husband Jeff and i are planning on attending.	227115624	1478097832612	1478097832686	e	69
444311	4783561	My husband Jeff and I are planning on attending.	My husband Jeff and i are planning on attending.	227115627	1478097832826	1478097832901	n	78
444311	4783561	My husband Jeff and I are planning on attending.	My husband Jeff and i are planning on attending.	227115634	1478097832980	1478097833067	d	68
444311	4783561	My husband Jeff and I are planning on attending.	My husband Jeff and i are planning on attending.	227115640	1478097833207	1478097833300	i	73
444311	4783561	My husband Jeff and I are planning on attending.	My husband Jeff and i are planning on attending.	227115683	1478097833373	1478097833492	n	78
444311	4783561	My husband Jeff and I are planning on attending.	My husband Jeff and i are planning on attending.	227115687	1478097833451	1478097833581	g	71
444311	4783561	My husband Jeff and I are planning on attending.	My husband Jeff and i are planning on attending.	227115693	1478097834294	1478097834377	.	190
444311	4783594	Call me anytime for information.	Call me anytime for information.	227116195	1478097841356	1478097841766	SHIFT	16
444311	4783594	Call me anytime for information.	Call me anytime for information.	227116188	1478097841555	1478097841688	C	67
444311	4783594	Call me anytime for information.	Call me anytime for information.	227116202	1478097841828	1478097841933	a	65
444311	4783594	Call me anytime for information.	Call me anytime for information.	227116210	1478097842011	1478097842086	l	76
444311	4783594	Call me anytime for information.	Call me anytime for information.	227116220	1478097842165	1478097842226	l	76
444311	4783594	Call me anytime for information.	Call me anytime for information.	227116226	1478097842366	1478097842466	 	32
444311	4783594	Call me anytime for information.	Call me anytime for information.	227116254	1478097842540	1478097842666	m	77
444311	4783594	Call me anytime for information.	Call me anytime for information.	227116258	1478097842682	1478097842768	e	69
444311	4783594	Call me anytime for information.	Call me anytime for information.	227116263	1478097842784	1478097842931	 	32
444311	4783594	Call me anytime for information.	Call me anytime for information.	227116269	1478097842946	1478097843087	a	65
444311	4783594	Call me anytime for information.	Call me anytime for information.	227116304	1478097843083	1478097843175	n	78
444311	4783594	Call me anytime for information.	Call me anytime for information.	227116306	1478097843315	1478097843392	y	89
444311	4783594	Call me anytime for information.	Call me anytime for information.	227116310	1478097843579	1478097843652	t	84
444311	4783594	Call me anytime for information.	Call me anytime for information.	227116313	1478097843748	1478097843848	i	73
444311	4783594	Call me anytime for information.	Call me anytime for information.	227116318	1478097843926	1478097844040	m	77
444311	4783594	Call me anytime for information.	Call me anytime for information.	227116323	1478097844056	1478097844141	e	69
444311	4783594	Call me anytime for information.	Call me anytime for information.	227116346	1478097844170	1478097844267	 	32
444311	4783594	Call me anytime for information.	Call me anytime for information.	227116351	1478097844314	1478097844400	f	70
444311	4783594	Call me anytime for information.	Call me anytime for information.	227116356	1478097844416	1478097844492	o	79
444311	4783594	Call me anytime for information.	Call me anytime for information.	227116361	1478097844570	1478097844667	r	82
444311	4783594	Call me anytime for information.	Call me anytime for information.	227116368	1478097844698	1478097844815	 	32
444311	4783594	Call me anytime for information.	Call me anytime for information.	227116539	1478097844982	1478097845111	i	73
444311	4783594	Call me anytime for information.	Call me anytime for information.	227116542	1478097846080	1478097846190	m	77
444311	4783594	Call me anytime for information.	Call me anytime for information.	227116548	1478097846502	1478097846611	BKSP	8
444311	4783594	Call me anytime for information.	Call me anytime for information.	227116554	1478097846862	1478097846973	n	78
444311	4783594	Call me anytime for information.	Call me anytime for information.	227116559	1478097847458	1478097847550	f	70
444311	4783594	Call me anytime for information.	Call me anytime for information.	227116565	1478097847582	1478097847658	o	79
444311	4783594	Call me anytime for information.	Call me anytime for information.	227116597	1478097847752	1478097847856	r	82
444311	4783594	Call me anytime for information.	Call me anytime for information.	227116600	1478097847887	1478097847984	m	77
444311	4783594	Call me anytime for information.	Call me anytime for information.	227116602	1478097848108	1478097848222	a	65
444311	4783594	Call me anytime for information.	Call me anytime for information.	227116604	1478097848378	1478097848449	t	84
444311	4783594	Call me anytime for information.	Call me anytime for information.	227116607	1478097848499	1478097848590	i	73
444311	4783594	Call me anytime for information.	Call me anytime for information.	227116649	1478097848680	1478097848766	o	79
444311	4783594	Call me anytime for information.	Call me anytime for information.	227116653	1478097848845	1478097848934	n	78
444311	4783594	Call me anytime for information.	Call me anytime for information.	227116657	1478097849398	1478097849459	.	190
444311	4783613	It's going to be a tough weekend.	It's going to be a tough weekend.	227117021	1478097854002	1478097854654	SHIFT	16
444311	4783613	It's going to be a tough weekend.	It's going to be a tough weekend.	227117015	1478097854488	1478097854639	I	73
444311	4783613	It's going to be a tough weekend.	It's going to be a tough weekend.	227117030	1478097855148	1478097855256	t	84
444311	4783613	It's going to be a tough weekend.	It's going to be a tough weekend.	227117036	1478097855366	1478097855441	'	222
444311	4783613	It's going to be a tough weekend.	It's going to be a tough weekend.	227117043	1478097855691	1478097855883	s	83
444311	4783613	It's going to be a tough weekend.	It's going to be a tough weekend.	227117050	1478097856059	1478097856156	 	32
444311	4783613	It's going to be a tough weekend.	It's going to be a tough weekend.	227117099	1478097856260	1478097856356	g	71
444311	4783613	It's going to be a tough weekend.	It's going to be a tough weekend.	227117105	1478097856419	1478097856508	o	79
444311	4783613	It's going to be a tough weekend.	It's going to be a tough weekend.	227117110	1478097856601	1478097856675	n	78
444311	4783613	It's going to be a tough weekend.	It's going to be a tough weekend.	227117114	1478097856769	1478097856858	n	78
444311	4783613	It's going to be a tough weekend.	It's going to be a tough weekend.	227117117	1478097856904	1478097857021	a	65
444311	4783613	It's going to be a tough weekend.	It's going to be a tough weekend.	227117261	1478097857078	1478097857223	 	32
444311	4783613	It's going to be a tough weekend.	It's going to be a tough weekend.	227117265	1478097857785	1478097857884	BKSP	8
444311	4783613	It's going to be a tough weekend.	It's going to be a tough weekend.	227117269	1478097857993	1478097858120	BKSP	8
444311	4783613	It's going to be a tough weekend.	It's going to be a tough weekend.	227117273	1478097858182	1478097858242	BKSP	8
444311	4783613	It's going to be a tough weekend.	It's going to be a tough weekend.	227117276	1478097858305	1478097858399	BKSP	8
444311	4783613	It's going to be a tough weekend.	It's going to be a tough weekend.	227117280	1478097858908	1478097858985	i	73
444311	4783613	It's going to be a tough weekend.	It's going to be a tough weekend.	227117284	1478097859078	1478097859158	n	78
444311	4783613	It's going to be a tough weekend.	It's going to be a tough weekend.	227117285	1478097859205	1478097859315	g	71
444311	4783613	It's going to be a tough weekend.	It's going to be a tough weekend.	227117289	1478097859315	1478097859432	 	32
444311	4783613	It's going to be a tough weekend.	It's going to be a tough weekend.	227117320	1478097859521	1478097859623	t	84
444311	4783613	It's going to be a tough weekend.	It's going to be a tough weekend.	227117325	1478097859638	1478097859725	o	79
444311	4783613	It's going to be a tough weekend.	It's going to be a tough weekend.	227117331	1478097859818	1478097859922	 	32
444311	4783613	It's going to be a tough weekend.	It's going to be a tough weekend.	227117335	1478097860015	1478097860099	b	66
444311	4783613	It's going to be a tough weekend.	It's going to be a tough weekend.	227117339	1478097860131	1478097860201	e	69
444311	4783613	It's going to be a tough weekend.	It's going to be a tough weekend.	227117409	1478097860227	1478097860354	 	32
444311	4783613	It's going to be a tough weekend.	It's going to be a tough weekend.	227117413	1478097860448	1478097860581	a	65
444311	4783613	It's going to be a tough weekend.	It's going to be a tough weekend.	227117414	1478097860674	1478097860767	 	32
444311	4783613	It's going to be a tough weekend.	It's going to be a tough weekend.	227117416	1478097860845	1478097860941	t	84
444311	4783613	It's going to be a tough weekend.	It's going to be a tough weekend.	227117418	1478097861046	1478097861133	o	79
444311	4783613	It's going to be a tough weekend.	It's going to be a tough weekend.	227117486	1478097861258	1478097861325	u	85
444311	4783613	It's going to be a tough weekend.	It's going to be a tough weekend.	227117490	1478097861356	1478097861442	g	71
444311	4783613	It's going to be a tough weekend.	It's going to be a tough weekend.	227117495	1478097861489	1478097861583	h	72
444311	4783613	It's going to be a tough weekend.	It's going to be a tough weekend.	227117498	1478097861739	1478097861852	 	32
444311	4783613	It's going to be a tough weekend.	It's going to be a tough weekend.	227117502	1478097862309	1478097862436	w	87
444311	4783613	It's going to be a tough weekend.	It's going to be a tough weekend.	227117527	1478097862494	1478097862566	e	69
444311	4783613	It's going to be a tough weekend.	It's going to be a tough weekend.	227117533	1478097862660	1478097862740	e	69
444311	4783613	It's going to be a tough weekend.	It's going to be a tough weekend.	227117539	1478097862803	1478097862899	k	75
444311	4783613	It's going to be a tough weekend.	It's going to be a tough weekend.	227117543	1478097862931	1478097863032	e	69
444311	4783613	It's going to be a tough weekend.	It's going to be a tough weekend.	227117549	1478097863172	1478097863251	n	78
444311	4783613	It's going to be a tough weekend.	It's going to be a tough weekend.	227117640	1478097863327	1478097863453	d	68
444311	4783613	It's going to be a tough weekend.	It's going to be a tough weekend.	227117645	1478097864415	1478097864507	.	190
444311	4783633	John, please send this to Shelly.	John, please send this to Shelly.	227118037	1478097868957	1478097869589	SHIFT	16
444311	4783633	John, please send this to Shelly.	John, please send this to Shelly.	227118038	1478097869481	1478097869605	J	74
444311	4783633	John, please send this to Shelly.	John, please send this to Shelly.	227118039	1478097869761	1478097869864	o	79
444311	4783633	John, please send this to Shelly.	John, please send this to Shelly.	227118040	1478097870382	1478097870465	h	72
444311	4783633	John, please send this to Shelly.	John, please send this to Shelly.	227118043	1478097870512	1478097870622	n	78
444311	4783633	John, please send this to Shelly.	John, please send this to Shelly.	227118046	1478097871013	1478097871100	,	188
444311	4783633	John, please send this to Shelly.	John, please send this to Shelly.	227118089	1478097871204	1478097871289	 	32
444311	4783633	John, please send this to Shelly.	John, please send this to Shelly.	227118092	1478097871574	1478097871633	p	80
444311	4783633	John, please send this to Shelly.	John, please send this to Shelly.	227118095	1478097871727	1478097871807	l	76
444311	4783633	John, please send this to Shelly.	John, please send this to Shelly.	227118099	1478097871823	1478097871916	e	69
444311	4783633	John, please send this to Shelly.	John, please send this to Shelly.	227118103	1478097872010	1478097872137	a	65
444311	4783633	John, please send this to Shelly.	John, please send this to Shelly.	227118143	1478097872148	1478097872264	s	83
444311	4783633	John, please send this to Shelly.	John, please send this to Shelly.	227118147	1478097872373	1478097872466	e	69
444311	4783633	John, please send this to Shelly.	John, please send this to Shelly.	227118154	1478097872628	1478097872754	 	32
444311	4783633	John, please send this to Shelly.	John, please send this to Shelly.	227118160	1478097873036	1478097873148	s	83
444311	4783633	John, please send this to Shelly.	John, please send this to Shelly.	227118164	1478097873257	1478097873324	e	69
444311	4783633	John, please send this to Shelly.	John, please send this to Shelly.	227118181	1478097873366	1478097873450	n	78
444311	4783633	John, please send this to Shelly.	John, please send this to Shelly.	227118184	1478097873575	1478097873703	d	68
444311	4783633	John, please send this to Shelly.	John, please send this to Shelly.	227118188	1478097873828	1478097873937	 	32
444311	4783633	John, please send this to Shelly.	John, please send this to Shelly.	227118192	1478097874000	1478097874074	t	84
444311	4783633	John, please send this to Shelly.	John, please send this to Shelly.	227118195	1478097874152	1478097874249	h	72
444311	4783633	John, please send this to Shelly.	John, please send this to Shelly.	227118220	1478097874359	1478097874455	i	73
444311	4783633	John, please send this to Shelly.	John, please send this to Shelly.	227118224	1478097874486	1478097874598	s	83
444311	4783633	John, please send this to Shelly.	John, please send this to Shelly.	227118230	1478097874629	1478097874707	 	32
444311	4783633	John, please send this to Shelly.	John, please send this to Shelly.	227118236	1478097874810	1478097874868	t	84
444311	4783633	John, please send this to Shelly.	John, please send this to Shelly.	227118243	1478097874931	1478097875015	o	79
444311	4783633	John, please send this to Shelly.	John, please send this to Shelly.	227118399	1478097875121	1478097875231	 	32
444311	4783633	John, please send this to Shelly.	John, please send this to Shelly.	227118401	1478097875708	1478097875824	s	83
444311	4783633	John, please send this to Shelly.	John, please send this to Shelly.	227118403	1478097875902	1478097875989	h	72
444311	4783633	John, please send this to Shelly.	John, please send this to Shelly.	227118406	1478097876130	1478097876216	e	69
444311	4783633	John, please send this to Shelly.	John, please send this to Shelly.	227118409	1478097876388	1478097876466	BKSP	8
444311	4783633	John, please send this to Shelly.	John, please send this to Shelly.	227118412	1478097876544	1478097876710	BKSP	8
444311	4783633	John, please send this to Shelly.	John, please send this to Shelly.	227118418	1478097877023	1478097877107	BKSP	8
444311	4783633	John, please send this to Shelly.	John, please send this to Shelly.	227118422	1478097877295	1478097877566	SHIFT	16
444311	4783633	John, please send this to Shelly.	John, please send this to Shelly.	227118457	1478097877482	1478097877608	S	83
444311	4783633	John, please send this to Shelly.	John, please send this to Shelly.	227118458	1478097877749	1478097877817	h	72
444311	4783633	John, please send this to Shelly.	John, please send this to Shelly.	227118459	1478097877910	1478097878030	e	69
444311	4783633	John, please send this to Shelly.	John, please send this to Shelly.	227118460	1478097878046	1478097878102	l	76
444311	4783633	John, please send this to Shelly.	John, please send this to Shelly.	227118462	1478097878196	1478097878267	l	76
444311	4783633	John, please send this to Shelly.	John, please send this to Shelly.	227118466	1478097878459	1478097878570	y	89
444311	4783633	John, please send this to Shelly.	John, please send this to Shelly.	227118499	1478097878946	1478097879048	.	190
