PARTICIPANT_ID	TEST_SECTION_ID	SENTENCE	USER_INPUT	KEYSTROKE_ID	PRESS_TIME	RELEASE_TIME	LETTER	KEYCODE
64816	707624	Add a Star Trek convention and sports memorabilia show to the mix.	Add a Star Trek Convention and sports memorabilia show to mix.	33637407	1472755199093	1472755199420	SHIFT	16
64816	707624	Add a Star Trek convention and sports memorabilia show to the mix.	Add a Star Trek Convention and sports memorabilia show to mix.	33637411	1472755199333	1472755199444	A	65
64816	707624	Add a Star Trek convention and sports memorabilia show to the mix.	Add a Star Trek Convention and sports memorabilia show to mix.	33637415	1472755199581	1472755199676	d	68
64816	707624	Add a Star Trek convention and sports memorabilia show to the mix.	Add a Star Trek Convention and sports memorabilia show to mix.	33637419	1472755199749	1472755199844	d	68
64816	707624	Add a Star Trek convention and sports memorabilia show to the mix.	Add a Star Trek Convention and sports memorabilia show to mix.	33637423	1472755199948	1472755200084	 	32
64816	707624	Add a Star Trek convention and sports memorabilia show to the mix.	Add a Star Trek Convention and sports memorabilia show to mix.	33637427	1472755200124	1472755200236	a	65
64816	707624	Add a Star Trek convention and sports memorabilia show to the mix.	Add a Star Trek Convention and sports memorabilia show to mix.	33637559	1472755200349	1472755200460	 	32
64816	707624	Add a Star Trek convention and sports memorabilia show to the mix.	Add a Star Trek Convention and sports memorabilia show to mix.	33637564	1472755200516	1472755200628	s	83
64816	707624	Add a Star Trek convention and sports memorabilia show to the mix.	Add a Star Trek Convention and sports memorabilia show to mix.	33637569	1472755200692	1472755200788	t	84
64816	707624	Add a Star Trek convention and sports memorabilia show to the mix.	Add a Star Trek Convention and sports memorabilia show to mix.	33637573	1472755201469	1472755201628	a	65
64816	707624	Add a Star Trek convention and sports memorabilia show to the mix.	Add a Star Trek Convention and sports memorabilia show to mix.	33637575	1472755201924	1472755201988	BKSP	8
64816	707624	Add a Star Trek convention and sports memorabilia show to the mix.	Add a Star Trek Convention and sports memorabilia show to mix.	33637576	1472755202060	1472755202132	BKSP	8
64816	707624	Add a Star Trek convention and sports memorabilia show to the mix.	Add a Star Trek Convention and sports memorabilia show to mix.	33637577	1472755202212	1472755202284	BKSP	8
64816	707624	Add a Star Trek convention and sports memorabilia show to the mix.	Add a Star Trek Convention and sports memorabilia show to mix.	33637578	1472755202444	1472755202740	SHIFT	16
64816	707624	Add a Star Trek convention and sports memorabilia show to the mix.	Add a Star Trek Convention and sports memorabilia show to mix.	33637695	1472755202637	1472755202772	S	83
64816	707624	Add a Star Trek convention and sports memorabilia show to the mix.	Add a Star Trek Convention and sports memorabilia show to mix.	33637698	1472755203269	1472755203380	t	84
64816	707624	Add a Star Trek convention and sports memorabilia show to the mix.	Add a Star Trek Convention and sports memorabilia show to mix.	33637703	1472755203468	1472755203612	a	65
64816	707624	Add a Star Trek convention and sports memorabilia show to the mix.	Add a Star Trek Convention and sports memorabilia show to mix.	33637705	1472755203852	1472755203948	r	82
64816	707624	Add a Star Trek convention and sports memorabilia show to the mix.	Add a Star Trek Convention and sports memorabilia show to mix.	33637711	1472755204285	1472755204372	 	32
64816	707624	Add a Star Trek convention and sports memorabilia show to the mix.	Add a Star Trek Convention and sports memorabilia show to mix.	33637717	1472755204468	1472755204732	SHIFT	16
64816	707624	Add a Star Trek convention and sports memorabilia show to the mix.	Add a Star Trek Convention and sports memorabilia show to mix.	33637872	1472755204661	1472755204739	T	84
64816	707624	Add a Star Trek convention and sports memorabilia show to the mix.	Add a Star Trek Convention and sports memorabilia show to mix.	33637878	1472755204988	1472755205108	r	82
64816	707624	Add a Star Trek convention and sports memorabilia show to the mix.	Add a Star Trek Convention and sports memorabilia show to mix.	33637887	1472755205789	1472755205852	e	69
64816	707624	Add a Star Trek convention and sports memorabilia show to the mix.	Add a Star Trek Convention and sports memorabilia show to mix.	33637891	1472755206540	1472755206620	k	75
64816	707624	Add a Star Trek convention and sports memorabilia show to the mix.	Add a Star Trek Convention and sports memorabilia show to mix.	33637899	1472755206787	1472755206939	 	32
64816	707624	Add a Star Trek convention and sports memorabilia show to the mix.	Add a Star Trek Convention and sports memorabilia show to mix.	33637996	1472755206980	1472755207443	SHIFT	16
64816	707624	Add a Star Trek convention and sports memorabilia show to the mix.	Add a Star Trek Convention and sports memorabilia show to mix.	33637904	1472755207294	1472755207436	C	67
64816	707624	Add a Star Trek convention and sports memorabilia show to the mix.	Add a Star Trek Convention and sports memorabilia show to mix.	33637998	1472755207556	1472755207652	o	79
64816	707624	Add a Star Trek convention and sports memorabilia show to the mix.	Add a Star Trek Convention and sports memorabilia show to mix.	33638001	1472755208237	1472755208396	n	78
64816	707624	Add a Star Trek convention and sports memorabilia show to the mix.	Add a Star Trek Convention and sports memorabilia show to mix.	33638005	1472755208956	1472755209028	v	86
64816	707624	Add a Star Trek convention and sports memorabilia show to the mix.	Add a Star Trek Convention and sports memorabilia show to mix.	33638008	1472755209124	1472755209260	e	69
64816	707624	Add a Star Trek convention and sports memorabilia show to the mix.	Add a Star Trek Convention and sports memorabilia show to mix.	33638015	1472755209364	1472755209524	n	78
64816	707624	Add a Star Trek convention and sports memorabilia show to the mix.	Add a Star Trek Convention and sports memorabilia show to mix.	33638073	1472755209628	1472755209772	t	84
64816	707624	Add a Star Trek convention and sports memorabilia show to the mix.	Add a Star Trek Convention and sports memorabilia show to mix.	33638076	1472755210164	1472755210220	i	73
64816	707624	Add a Star Trek convention and sports memorabilia show to the mix.	Add a Star Trek Convention and sports memorabilia show to mix.	33638080	1472755210324	1472755210388	o	79
64816	707624	Add a Star Trek convention and sports memorabilia show to the mix.	Add a Star Trek Convention and sports memorabilia show to mix.	33638082	1472755210524	1472755210693	n	78
64816	707624	Add a Star Trek convention and sports memorabilia show to the mix.	Add a Star Trek Convention and sports memorabilia show to mix.	33638150	1472755210684	1472755210780	 	32
64816	707624	Add a Star Trek convention and sports memorabilia show to the mix.	Add a Star Trek Convention and sports memorabilia show to mix.	33638153	1472755210844	1472755210964	a	65
64816	707624	Add a Star Trek convention and sports memorabilia show to the mix.	Add a Star Trek Convention and sports memorabilia show to mix.	33638157	1472755210972	1472755211060	n	78
64816	707624	Add a Star Trek convention and sports memorabilia show to the mix.	Add a Star Trek Convention and sports memorabilia show to mix.	33638160	1472755211124	1472755211220	d	68
64816	707624	Add a Star Trek convention and sports memorabilia show to the mix.	Add a Star Trek Convention and sports memorabilia show to mix.	33638163	1472755211268	1472755211356	 	32
64816	707624	Add a Star Trek convention and sports memorabilia show to the mix.	Add a Star Trek Convention and sports memorabilia show to mix.	33638165	1472755211436	1472755211547	s	83
64816	707624	Add a Star Trek convention and sports memorabilia show to the mix.	Add a Star Trek Convention and sports memorabilia show to mix.	33638303	1472755211652	1472755211724	t	84
64816	707624	Add a Star Trek convention and sports memorabilia show to the mix.	Add a Star Trek Convention and sports memorabilia show to mix.	33638307	1472755212212	1472755212444	o	79
64816	707624	Add a Star Trek convention and sports memorabilia show to the mix.	Add a Star Trek Convention and sports memorabilia show to mix.	33638313	1472755213300	1472755213318	BKSP	8
64816	707624	Add a Star Trek convention and sports memorabilia show to the mix.	Add a Star Trek Convention and sports memorabilia show to mix.	33638319	1472755213319	1472755213327	BKSP	8
64816	707624	Add a Star Trek convention and sports memorabilia show to the mix.	Add a Star Trek Convention and sports memorabilia show to mix.	33638325	1472755213328	1472755213355	p	80
64816	707624	Add a Star Trek convention and sports memorabilia show to the mix.	Add a Star Trek Convention and sports memorabilia show to mix.	33638332	1472755213500	1472755213572	o	79
64816	707624	Add a Star Trek convention and sports memorabilia show to the mix.	Add a Star Trek Convention and sports memorabilia show to mix.	33638337	1472755213748	1472755213852	r	82
64816	707624	Add a Star Trek convention and sports memorabilia show to the mix.	Add a Star Trek Convention and sports memorabilia show to mix.	33638463	1472755213956	1472755214044	t	84
64816	707624	Add a Star Trek convention and sports memorabilia show to the mix.	Add a Star Trek Convention and sports memorabilia show to mix.	33638473	1472755214348	1472755214468	s	83
64816	707624	Add a Star Trek convention and sports memorabilia show to the mix.	Add a Star Trek Convention and sports memorabilia show to mix.	33638483	1472755215164	1472755215332	 	32
64816	707624	Add a Star Trek convention and sports memorabilia show to the mix.	Add a Star Trek Convention and sports memorabilia show to mix.	33638496	1472755215788	1472755215932	m	77
64816	707624	Add a Star Trek convention and sports memorabilia show to the mix.	Add a Star Trek Convention and sports memorabilia show to mix.	33638505	1472755215972	1472755216124	e	69
64816	707624	Add a Star Trek convention and sports memorabilia show to the mix.	Add a Star Trek Convention and sports memorabilia show to mix.	33638636	1472755216228	1472755216372	m	77
64816	707624	Add a Star Trek convention and sports memorabilia show to the mix.	Add a Star Trek Convention and sports memorabilia show to mix.	33638640	1472755217218	1472755217226	o	79
64816	707624	Add a Star Trek convention and sports memorabilia show to the mix.	Add a Star Trek Convention and sports memorabilia show to mix.	33638646	1472755217227	1472755217283	r	82
64816	707624	Add a Star Trek convention and sports memorabilia show to the mix.	Add a Star Trek Convention and sports memorabilia show to mix.	33638655	1472755217773	1472755217948	a	65
64816	707624	Add a Star Trek convention and sports memorabilia show to the mix.	Add a Star Trek Convention and sports memorabilia show to mix.	33638662	1472755218189	1472755218260	b	66
64816	707624	Add a Star Trek convention and sports memorabilia show to the mix.	Add a Star Trek Convention and sports memorabilia show to mix.	33638968	1472755218685	1472755218948	l	76
64816	707624	Add a Star Trek convention and sports memorabilia show to the mix.	Add a Star Trek Convention and sports memorabilia show to mix.	33638970	1472755220693	1472755220795	BKSP	8
64816	707624	Add a Star Trek convention and sports memorabilia show to the mix.	Add a Star Trek Convention and sports memorabilia show to mix.	33638973	1472755221052	1472755221140	i	73
64816	707624	Add a Star Trek convention and sports memorabilia show to the mix.	Add a Star Trek Convention and sports memorabilia show to mix.	33638974	1472755221582	1472755221660	l	76
64816	707624	Add a Star Trek convention and sports memorabilia show to the mix.	Add a Star Trek Convention and sports memorabilia show to mix.	33638976	1472755222198	1472755222299	i	73
64816	707624	Add a Star Trek convention and sports memorabilia show to the mix.	Add a Star Trek Convention and sports memorabilia show to mix.	33638978	1472755222308	1472755222452	a	65
64816	707624	Add a Star Trek convention and sports memorabilia show to the mix.	Add a Star Trek Convention and sports memorabilia show to mix.	33639118	1472755222796	1472755222899	 	32
64816	707624	Add a Star Trek convention and sports memorabilia show to the mix.	Add a Star Trek Convention and sports memorabilia show to mix.	33639124	1472755223084	1472755223204	s	83
64816	707624	Add a Star Trek convention and sports memorabilia show to the mix.	Add a Star Trek Convention and sports memorabilia show to mix.	33639127	1472755223196	1472755223260	h	72
64816	707624	Add a Star Trek convention and sports memorabilia show to the mix.	Add a Star Trek Convention and sports memorabilia show to mix.	33639136	1472755224293	1472755224332	o	79
64816	707624	Add a Star Trek convention and sports memorabilia show to the mix.	Add a Star Trek Convention and sports memorabilia show to mix.	33639143	1472755224380	1472755224499	w	87
64816	707624	Add a Star Trek convention and sports memorabilia show to the mix.	Add a Star Trek Convention and sports memorabilia show to mix.	33639192	1472755224636	1472755224771	 	32
64816	707624	Add a Star Trek convention and sports memorabilia show to the mix.	Add a Star Trek Convention and sports memorabilia show to mix.	33639198	1472755224812	1472755224947	t	84
64816	707624	Add a Star Trek convention and sports memorabilia show to the mix.	Add a Star Trek Convention and sports memorabilia show to mix.	33639203	1472755225027	1472755225138	o	79
64816	707624	Add a Star Trek convention and sports memorabilia show to the mix.	Add a Star Trek Convention and sports memorabilia show to mix.	33639211	1472755225187	1472755225314	 	32
64816	707624	Add a Star Trek convention and sports memorabilia show to the mix.	Add a Star Trek Convention and sports memorabilia show to mix.	33639219	1472755225490	1472755225611	m	77
64816	707624	Add a Star Trek convention and sports memorabilia show to the mix.	Add a Star Trek Convention and sports memorabilia show to mix.	33639344	1472755225972	1472755226075	i	73
64816	707624	Add a Star Trek convention and sports memorabilia show to the mix.	Add a Star Trek Convention and sports memorabilia show to mix.	33639346	1472755226380	1472755226467	x	88
64816	707624	Add a Star Trek convention and sports memorabilia show to the mix.	Add a Star Trek Convention and sports memorabilia show to mix.	33639348	1472755227268	1472755227331	.	190
64816	707671	Ava, do we need to worry about this?	Ave, do we need to worry about this?	33639619	1472755229699	1472755229900	SHIFT	16
64816	707671	Ava, do we need to worry about this?	Ave, do we need to worry about this?	33639626	1472755229843	1472755229963	A	65
64816	707671	Ava, do we need to worry about this?	Ave, do we need to worry about this?	33639631	1472755230052	1472755230107	v	86
64816	707671	Ava, do we need to worry about this?	Ave, do we need to worry about this?	33639636	1472755230196	1472755230283	e	69
64816	707671	Ava, do we need to worry about this?	Ave, do we need to worry about this?	33639642	1472755230972	1472755231338	,	188
64816	707671	Ava, do we need to worry about this?	Ave, do we need to worry about this?	33639720	1472755231337	1472755231419	 	16
64816	707671	Ava, do we need to worry about this?	Ave, do we need to worry about this?	33639723	1472755231764	1472755231867	d	68
64816	707671	Ava, do we need to worry about this?	Ave, do we need to worry about this?	33639725	1472755231924	1472755232043	o	79
64816	707671	Ava, do we need to worry about this?	Ave, do we need to worry about this?	33639728	1472755232244	1472755232379	w	32
64816	707671	Ava, do we need to worry about this?	Ave, do we need to worry about this?	33639731	1472755232548	1472755232675	e	69
64816	707671	Ava, do we need to worry about this?	Ave, do we need to worry about this?	33639809	1472755232772	1472755232915	 	32
64816	707671	Ava, do we need to worry about this?	Ave, do we need to worry about this?	33639816	1472755233116	1472755233227	n	78
64816	707671	Ava, do we need to worry about this?	Ave, do we need to worry about this?	33639822	1472755233276	1472755233387	e	69
64816	707671	Ava, do we need to worry about this?	Ave, do we need to worry about this?	33639829	1472755233460	1472755233563	e	69
64816	707671	Ava, do we need to worry about this?	Ave, do we need to worry about this?	33639836	1472755233932	1472755234027	d	68
64816	707671	Ava, do we need to worry about this?	Ave, do we need to worry about this?	33639901	1472755234124	1472755234251	 	32
64816	707671	Ava, do we need to worry about this?	Ave, do we need to worry about this?	33639906	1472755234299	1472755234403	t	84
64816	707671	Ava, do we need to worry about this?	Ave, do we need to worry about this?	33639911	1472755234436	1472755234587	o	79
64816	707671	Ava, do we need to worry about this?	Ave, do we need to worry about this?	33639914	1472755234532	1472755234675	 	32
64816	707671	Ava, do we need to worry about this?	Ave, do we need to worry about this?	33639919	1472755234756	1472755234875	w	87
64816	707671	Ava, do we need to worry about this?	Ave, do we need to worry about this?	33639951	1472755234924	1472755235035	o	79
64816	707671	Ava, do we need to worry about this?	Ave, do we need to worry about this?	33639956	1472755235124	1472755235211	r	82
64816	707671	Ava, do we need to worry about this?	Ave, do we need to worry about this?	33639961	1472755235252	1472755235347	r	82
64816	707671	Ava, do we need to worry about this?	Ave, do we need to worry about this?	33639968	1472755235476	1472755235579	y	89
64816	707671	Ava, do we need to worry about this?	Ave, do we need to worry about this?	33639973	1472755235716	1472755235811	 	32
64816	707671	Ava, do we need to worry about this?	Ave, do we need to worry about this?	33640050	1472755235868	1472755235987	a	65
64816	707671	Ava, do we need to worry about this?	Ave, do we need to worry about this?	33640054	1472755236067	1472755236163	b	66
64816	707671	Ava, do we need to worry about this?	Ave, do we need to worry about this?	33640066	1472755236378	1472755236475	o	79
64816	707671	Ava, do we need to worry about this?	Ave, do we need to worry about this?	33640072	1472755236660	1472755236747	u	85
64816	707671	Ava, do we need to worry about this?	Ave, do we need to worry about this?	33640079	1472755236812	1472755236923	t	84
64816	707671	Ava, do we need to worry about this?	Ave, do we need to worry about this?	33640113	1472755236956	1472755237067	 	32
64816	707671	Ava, do we need to worry about this?	Ave, do we need to worry about this?	33640121	1472755237116	1472755237211	t	84
64816	707671	Ava, do we need to worry about this?	Ave, do we need to worry about this?	33640127	1472755237196	1472755237267	h	72
64816	707671	Ava, do we need to worry about this?	Ave, do we need to worry about this?	33640131	1472755237364	1472755237499	i	73
64816	707671	Ava, do we need to worry about this?	Ave, do we need to worry about this?	33640136	1472755237515	1472755237643	s	83
64816	707671	Ava, do we need to worry about this?	Ave, do we need to worry about this?	33640170	1472755237821	1472755238091	SHIFT	16
64816	707671	Ava, do we need to worry about this?	Ave, do we need to worry about this?	33640166	1472755237932	1472755238067	?	191
64816	707690	What is in the plan?	What is in the plan?	33640411	1472755240539	1472755240763	SHIFT	16
64816	707690	What is in the plan?	What is in the plan?	33640415	1472755240691	1472755240803	W	87
64816	707690	What is in the plan?	What is in the plan?	33640418	1472755240828	1472755240915	h	72
64816	707690	What is in the plan?	What is in the plan?	33640420	1472755240971	1472755241075	a	65
64816	707690	What is in the plan?	What is in the plan?	33640422	1472755241099	1472755241163	t	84
64816	707690	What is in the plan?	What is in the plan?	33640426	1472755241436	1472755241571	 	32
64816	707690	What is in the plan?	What is in the plan?	33640497	1472755241635	1472755241739	i	73
64816	707690	What is in the plan?	What is in the plan?	33640502	1472755241771	1472755241891	s	83
64816	707690	What is in the plan?	What is in the plan?	33640506	1472755241963	1472755242075	 	32
64816	707690	What is in the plan?	What is in the plan?	33640512	1472755242740	1472755242803	i	73
64816	707690	What is in the plan?	What is in the plan?	33640515	1472755242931	1472755243003	n	78
64816	707690	What is in the plan?	What is in the plan?	33640556	1472755243060	1472755243163	 	32
64816	707690	What is in the plan?	What is in the plan?	33640560	1472755243228	1472755243315	t	84
64816	707690	What is in the plan?	What is in the plan?	33640566	1472755243332	1472755243411	h	72
64816	707690	What is in the plan?	What is in the plan?	33640571	1472755243515	1472755243635	e	69
64816	707690	What is in the plan?	What is in the plan?	33640575	1472755243706	1472755243803	 	32
64816	707690	What is in the plan?	What is in the plan?	33640654	1472755243955	1472755244043	p	80
64816	707690	What is in the plan?	What is in the plan?	33640656	1472755244179	1472755244267	l	76
64816	707690	What is in the plan?	What is in the plan?	33640660	1472755244540	1472755244667	a	65
64816	707690	What is in the plan?	What is in the plan?	33640664	1472755244699	1472755244763	n	78
64816	707690	What is in the plan?	What is in the plan?	33640666	1472755244979	1472755245234	SHIFT	16
64816	707690	What is in the plan?	What is in the plan?	33640669	1472755245091	1472755245227	?	191
64816	707700	One would have thought I'd have this down pat by now.	One would have thought I'd have this down pat by now.	33641024	1472755247211	1472755247252	o	79
64816	707700	One would have thought I'd have this down pat by now.	One would have thought I'd have this down pat by now.	33641029	1472755247955	1472755248099	e	69
64816	707700	One would have thought I'd have this down pat by now.	One would have thought I'd have this down pat by now.	33641035	1472755249036	1472755249042	BKSP	8
64816	707700	One would have thought I'd have this down pat by now.	One would have thought I'd have this down pat by now.	33641038	1472755249043	1472755249053	n	78
64816	707700	One would have thought I'd have this down pat by now.	One would have thought I'd have this down pat by now.	33641043	1472755249499	1472755249635	e	69
64816	707700	One would have thought I'd have this down pat by now.	One would have thought I'd have this down pat by now.	33641046	1472755249755	1472755249883	 	32
64816	707700	One would have thought I'd have this down pat by now.	One would have thought I'd have this down pat by now.	33641166	1472755250099	1472755250219	w	87
64816	707700	One would have thought I'd have this down pat by now.	One would have thought I'd have this down pat by now.	33641171	1472755250443	1472755250507	BKSP	8
64816	707700	One would have thought I'd have this down pat by now.	One would have thought I'd have this down pat by now.	33641176	1472755250595	1472755250651	BKSP	8
64816	707700	One would have thought I'd have this down pat by now.	One would have thought I'd have this down pat by now.	33641180	1472755250739	1472755250795	BKSP	8
64816	707700	One would have thought I'd have this down pat by now.	One would have thought I'd have this down pat by now.	33641182	1472755250883	1472755250947	BKSP	8
64816	707700	One would have thought I'd have this down pat by now.	One would have thought I'd have this down pat by now.	33641186	1472755251035	1472755251083	BKSP	8
64816	707700	One would have thought I'd have this down pat by now.	One would have thought I'd have this down pat by now.	33641190	1472755251179	1472755251243	BKSP	8
64816	707700	One would have thought I'd have this down pat by now.	One would have thought I'd have this down pat by now.	33641202	1472755251267	1472755251563	SHIFT	16
64816	707700	One would have thought I'd have this down pat by now.	One would have thought I'd have this down pat by now.	33641197	1472755251459	1472755251523	O	79
64816	707700	One would have thought I'd have this down pat by now.	One would have thought I'd have this down pat by now.	33641206	1472755251691	1472755251795	n	78
64816	707700	One would have thought I'd have this down pat by now.	One would have thought I'd have this down pat by now.	33641212	1472755251891	1472755252011	e	69
64816	707700	One would have thought I'd have this down pat by now.	One would have thought I'd have this down pat by now.	33641216	1472755252107	1472755252219	 	32
64816	707700	One would have thought I'd have this down pat by now.	One would have thought I'd have this down pat by now.	33641262	1472755252715	1472755252803	w	87
64816	707700	One would have thought I'd have this down pat by now.	One would have thought I'd have this down pat by now.	33641268	1472755252851	1472755252947	o	79
64816	707700	One would have thought I'd have this down pat by now.	One would have thought I'd have this down pat by now.	33641272	1472755253107	1472755253202	u	85
64816	707700	One would have thought I'd have this down pat by now.	One would have thought I'd have this down pat by now.	33641276	1472755253387	1472755253542	l	76
64816	707700	One would have thought I'd have this down pat by now.	One would have thought I'd have this down pat by now.	33641330	1472755253523	1472755253675	d	68
64816	707700	One would have thought I'd have this down pat by now.	One would have thought I'd have this down pat by now.	33641334	1472755253907	1472755254011	 	32
64816	707700	One would have thought I'd have this down pat by now.	One would have thought I'd have this down pat by now.	33641337	1472755254131	1472755254227	h	72
64816	707700	One would have thought I'd have this down pat by now.	One would have thought I'd have this down pat by now.	33641341	1472755254267	1472755254379	a	65
64816	707700	One would have thought I'd have this down pat by now.	One would have thought I'd have this down pat by now.	33641346	1472755254419	1472755254515	v	86
64816	707700	One would have thought I'd have this down pat by now.	One would have thought I'd have this down pat by now.	33641355	1472755254555	1472755254667	e	69
64816	707700	One would have thought I'd have this down pat by now.	One would have thought I'd have this down pat by now.	33641469	1472755254779	1472755254899	 	32
64816	707700	One would have thought I'd have this down pat by now.	One would have thought I'd have this down pat by now.	33641472	1472755255195	1472755255307	t	84
64816	707700	One would have thought I'd have this down pat by now.	One would have thought I'd have this down pat by now.	33641477	1472755255339	1472755255419	h	72
64816	707700	One would have thought I'd have this down pat by now.	One would have thought I'd have this down pat by now.	33641485	1472755255819	1472755256051	o	79
64816	707700	One would have thought I'd have this down pat by now.	One would have thought I'd have this down pat by now.	33641491	1472755256411	1472755256522	u	85
64816	707700	One would have thought I'd have this down pat by now.	One would have thought I'd have this down pat by now.	33641640	1472755256683	1472755256787	g	71
64816	707700	One would have thought I'd have this down pat by now.	One would have thought I'd have this down pat by now.	33641644	1472755256955	1472755257123	h	72
64816	707700	One would have thought I'd have this down pat by now.	One would have thought I'd have this down pat by now.	33641647	1472755257339	1472755257483	t	84
64816	707700	One would have thought I'd have this down pat by now.	One would have thought I'd have this down pat by now.	33641651	1472755258366	1472755258459	 	32
64816	707700	One would have thought I'd have this down pat by now.	One would have thought I'd have this down pat by now.	33641655	1472755258563	1472755258755	SHIFT	16
64816	707700	One would have thought I'd have this down pat by now.	One would have thought I'd have this down pat by now.	33641786	1472755258683	1472755258779	I	73
64816	707700	One would have thought I'd have this down pat by now.	One would have thought I'd have this down pat by now.	33641789	1472755259211	1472755259307	'	222
64816	707700	One would have thought I'd have this down pat by now.	One would have thought I'd have this down pat by now.	33641794	1472755259331	1472755259459	s	83
64816	707700	One would have thought I'd have this down pat by now.	One would have thought I'd have this down pat by now.	33641797	1472755259963	1472755260058	BKSP	8
64816	707700	One would have thought I'd have this down pat by now.	One would have thought I'd have this down pat by now.	33641801	1472755260195	1472755260314	d	68
64816	707700	One would have thought I'd have this down pat by now.	One would have thought I'd have this down pat by now.	33641805	1472755260395	1472755260507	 	32
64816	707700	One would have thought I'd have this down pat by now.	One would have thought I'd have this down pat by now.	33641810	1472755260643	1472755260723	h	72
64816	707700	One would have thought I'd have this down pat by now.	One would have thought I'd have this down pat by now.	33641841	1472755260739	1472755260843	a	65
64816	707700	One would have thought I'd have this down pat by now.	One would have thought I'd have this down pat by now.	33641847	1472755260875	1472755260963	v	86
64816	707700	One would have thought I'd have this down pat by now.	One would have thought I'd have this down pat by now.	33641853	1472755261003	1472755261115	e	69
64816	707700	One would have thought I'd have this down pat by now.	One would have thought I'd have this down pat by now.	33641857	1472755261291	1472755261403	 	32
64816	707700	One would have thought I'd have this down pat by now.	One would have thought I'd have this down pat by now.	33641862	1472755261611	1472755261740	t	84
64816	707700	One would have thought I'd have this down pat by now.	One would have thought I'd have this down pat by now.	33641918	1472755261715	1472755261771	h	72
64816	707700	One would have thought I'd have this down pat by now.	One would have thought I'd have this down pat by now.	33641921	1472755261875	1472755262018	i	73
64816	707700	One would have thought I'd have this down pat by now.	One would have thought I'd have this down pat by now.	33641927	1472755262035	1472755262163	s	83
64816	707700	One would have thought I'd have this down pat by now.	One would have thought I'd have this down pat by now.	33641930	1472755262219	1472755262338	 	32
64816	707700	One would have thought I'd have this down pat by now.	One would have thought I'd have this down pat by now.	33641933	1472755262595	1472755262714	d	68
64816	707700	One would have thought I'd have this down pat by now.	One would have thought I'd have this down pat by now.	33641936	1472755262739	1472755262889	o	79
64816	707700	One would have thought I'd have this down pat by now.	One would have thought I'd have this down pat by now.	33642053	1472755262929	1472755263017	e	69
64816	707700	One would have thought I'd have this down pat by now.	One would have thought I'd have this down pat by now.	33642054	1472755263436	1472755263546	BKSP	8
64816	707700	One would have thought I'd have this down pat by now.	One would have thought I'd have this down pat by now.	33642056	1472755263627	1472755263738	w	87
64816	707700	One would have thought I'd have this down pat by now.	One would have thought I'd have this down pat by now.	33642058	1472755263795	1472755263930	n	78
64816	707700	One would have thought I'd have this down pat by now.	One would have thought I'd have this down pat by now.	33642060	1472755264083	1472755264178	 	32
64816	707700	One would have thought I'd have this down pat by now.	One would have thought I'd have this down pat by now.	33642063	1472755264307	1472755264458	p	80
64816	707700	One would have thought I'd have this down pat by now.	One would have thought I'd have this down pat by now.	33642159	1472755264475	1472755264626	a	65
64816	707700	One would have thought I'd have this down pat by now.	One would have thought I'd have this down pat by now.	33642165	1472755264707	1472755264802	t	84
64816	707700	One would have thought I'd have this down pat by now.	One would have thought I'd have this down pat by now.	33642170	1472755265035	1472755265162	 	32
64816	707700	One would have thought I'd have this down pat by now.	One would have thought I'd have this down pat by now.	33642177	1472755265619	1472755265690	b	66
64816	707700	One would have thought I'd have this down pat by now.	One would have thought I'd have this down pat by now.	33642182	1472755265859	1472755265938	y	89
64816	707700	One would have thought I'd have this down pat by now.	One would have thought I'd have this down pat by now.	33642296	1472755266043	1472755266122	 	32
64816	707700	One would have thought I'd have this down pat by now.	One would have thought I'd have this down pat by now.	33642303	1472755266267	1472755266330	n	78
64816	707700	One would have thought I'd have this down pat by now.	One would have thought I'd have this down pat by now.	33642309	1472755266483	1472755266626	o	79
64816	707700	One would have thought I'd have this down pat by now.	One would have thought I'd have this down pat by now.	33642315	1472755267059	1472755267162	w	87
64816	707700	One would have thought I'd have this down pat by now.	One would have thought I'd have this down pat by now.	33642320	1472755267619	1472755267682	.	190
64816	707737	I'll just have her call Tracy.	I'll just have her call Tracy.	33642589	1472755269778	1472755269994	SHIFT	16
64816	707737	I'll just have her call Tracy.	I'll just have her call Tracy.	33642585	1472755269898	1472755269979	I	73
64816	707737	I'll just have her call Tracy.	I'll just have her call Tracy.	33642592	1472755270323	1472755270418	'	222
64816	707737	I'll just have her call Tracy.	I'll just have her call Tracy.	33642596	1472755270747	1472755270810	l	76
64816	707737	I'll just have her call Tracy.	I'll just have her call Tracy.	33642604	1472755270891	1472755270970	l	76
64816	707737	I'll just have her call Tracy.	I'll just have her call Tracy.	33642608	1472755271139	1472755271250	 	32
64816	707737	I'll just have her call Tracy.	I'll just have her call Tracy.	33642671	1472755271499	1472755271570	j	74
64816	707737	I'll just have her call Tracy.	I'll just have her call Tracy.	33642673	1472755271683	1472755271746	u	85
64816	707737	I'll just have her call Tracy.	I'll just have her call Tracy.	33642677	1472755271803	1472755271930	s	83
64816	707737	I'll just have her call Tracy.	I'll just have her call Tracy.	33642682	1472755271898	1472755271994	t	84
64816	707737	I'll just have her call Tracy.	I'll just have her call Tracy.	33642686	1472755272123	1472755272194	 	32
64816	707737	I'll just have her call Tracy.	I'll just have her call Tracy.	33642743	1472755272307	1472755272386	h	72
64816	707737	I'll just have her call Tracy.	I'll just have her call Tracy.	33642750	1472755272419	1472755272530	a	65
64816	707737	I'll just have her call Tracy.	I'll just have her call Tracy.	33642756	1472755272578	1472755272642	v	86
64816	707737	I'll just have her call Tracy.	I'll just have her call Tracy.	33642760	1472755272715	1472755272826	e	69
64816	707737	I'll just have her call Tracy.	I'll just have her call Tracy.	33642766	1472755272923	1472755273018	 	32
64816	707737	I'll just have her call Tracy.	I'll just have her call Tracy.	33642806	1472755273299	1472755273386	h	72
64816	707737	I'll just have her call Tracy.	I'll just have her call Tracy.	33642810	1472755273434	1472755273530	e	69
64816	707737	I'll just have her call Tracy.	I'll just have her call Tracy.	33642814	1472755273627	1472755273714	r	82
64816	707737	I'll just have her call Tracy.	I'll just have her call Tracy.	33642818	1472755273739	1472755273850	 	32
64816	707737	I'll just have her call Tracy.	I'll just have her call Tracy.	33642822	1472755273955	1472755274050	c	67
64816	707737	I'll just have her call Tracy.	I'll just have her call Tracy.	33642855	1472755274179	1472755274274	a	65
64816	707737	I'll just have her call Tracy.	I'll just have her call Tracy.	33642859	1472755274322	1472755274394	l	76
64816	707737	I'll just have her call Tracy.	I'll just have her call Tracy.	33642862	1472755274475	1472755274546	l	76
64816	707737	I'll just have her call Tracy.	I'll just have her call Tracy.	33642867	1472755274667	1472755274802	 	32
64816	707737	I'll just have her call Tracy.	I'll just have her call Tracy.	33642871	1472755275099	1472755275298	SHIFT	16
64816	707737	I'll just have her call Tracy.	I'll just have her call Tracy.	33642992	1472755275275	1472755275346	T	84
64816	707737	I'll just have her call Tracy.	I'll just have her call Tracy.	33642996	1472755275491	1472755275562	r	82
64816	707737	I'll just have her call Tracy.	I'll just have her call Tracy.	33643000	1472755276012	1472755276138	a	65
64816	707737	I'll just have her call Tracy.	I'll just have her call Tracy.	33643006	1472755276451	1472755276570	c	67
64816	707737	I'll just have her call Tracy.	I'll just have her call Tracy.	33643011	1472755276643	1472755276714	y	89
64816	707737	I'll just have her call Tracy.	I'll just have her call Tracy.	33643016	1472755277107	1472755277186	.	190
64816	707759	Deportivo have won nothing in their history.	Deportivo have won nothing in their history.	33643451	1472755279082	1472755279466	SHIFT	16
64816	707759	Deportivo have won nothing in their history.	Deportivo have won nothing in their history.	33643459	1472755280154	1472755280410	SHIFT	16
64816	707759	Deportivo have won nothing in their history.	Deportivo have won nothing in their history.	33643466	1472755280370	1472755280458	D	68
64816	707759	Deportivo have won nothing in their history.	Deportivo have won nothing in their history.	33643472	1472755280562	1472755280698	e	69
64816	707759	Deportivo have won nothing in their history.	Deportivo have won nothing in their history.	33643480	1472755281355	1472755281410	o	79
64816	707759	Deportivo have won nothing in their history.	Deportivo have won nothing in their history.	33643483	1472755282419	1472755282425	BKSP	8
64816	707759	Deportivo have won nothing in their history.	Deportivo have won nothing in their history.	33643487	1472755282426	1472755282438	p	80
64816	707759	Deportivo have won nothing in their history.	Deportivo have won nothing in their history.	33643489	1472755282440	1472755282444	o	79
64816	707759	Deportivo have won nothing in their history.	Deportivo have won nothing in their history.	33643639	1472755283124	1472755283250	r	82
64816	707759	Deportivo have won nothing in their history.	Deportivo have won nothing in their history.	33643645	1472755283467	1472755283634	t	84
64816	707759	Deportivo have won nothing in their history.	Deportivo have won nothing in their history.	33643649	1472755283842	1472755283978	i	73
64816	707759	Deportivo have won nothing in their history.	Deportivo have won nothing in their history.	33643658	1472755284210	1472755284290	v	86
64816	707759	Deportivo have won nothing in their history.	Deportivo have won nothing in their history.	33643664	1472755284547	1472755284698	o	79
64816	707759	Deportivo have won nothing in their history.	Deportivo have won nothing in their history.	33643749	1472755284810	1472755284954	 	32
64816	707759	Deportivo have won nothing in their history.	Deportivo have won nothing in their history.	33643750	1472755285018	1472755285130	SHIFT	16
64816	707759	Deportivo have won nothing in their history.	Deportivo have won nothing in their history.	33643752	1472755285107	1472755285210	H	72
64816	707759	Deportivo have won nothing in their history.	Deportivo have won nothing in their history.	33643754	1472755285906	1472755285994	BKSP	8
64816	707759	Deportivo have won nothing in their history.	Deportivo have won nothing in their history.	33643756	1472755286170	1472755286266	h	72
64816	707759	Deportivo have won nothing in their history.	Deportivo have won nothing in their history.	33643759	1472755286306	1472755286346	a	65
64816	707759	Deportivo have won nothing in their history.	Deportivo have won nothing in their history.	33643762	1472755286411	1472755286498	v	86
64816	707759	Deportivo have won nothing in their history.	Deportivo have won nothing in their history.	33643857	1472755286570	1472755286682	e	69
64816	707759	Deportivo have won nothing in their history.	Deportivo have won nothing in their history.	33643859	1472755286818	1472755286946	 	32
64816	707759	Deportivo have won nothing in their history.	Deportivo have won nothing in their history.	33643861	1472755287146	1472755287250	w	87
64816	707759	Deportivo have won nothing in their history.	Deportivo have won nothing in their history.	33643863	1472755287810	1472755287906	o	79
64816	707759	Deportivo have won nothing in their history.	Deportivo have won nothing in their history.	33643868	1472755288058	1472755288170	n	78
64816	707759	Deportivo have won nothing in their history.	Deportivo have won nothing in their history.	33644005	1472755288402	1472755288514	 	32
64816	707759	Deportivo have won nothing in their history.	Deportivo have won nothing in their history.	33644009	1472755288842	1472755288930	n	78
64816	707759	Deportivo have won nothing in their history.	Deportivo have won nothing in their history.	33644012	1472755289290	1472755289378	o	79
64816	707759	Deportivo have won nothing in their history.	Deportivo have won nothing in their history.	33644020	1472755289450	1472755289586	t	84
64816	707759	Deportivo have won nothing in their history.	Deportivo have won nothing in their history.	33644025	1472755289842	1472755289946	i	73
64816	707759	Deportivo have won nothing in their history.	Deportivo have won nothing in their history.	33644104	1472755290226	1472755290330	BKSP	8
64816	707759	Deportivo have won nothing in their history.	Deportivo have won nothing in their history.	33644105	1472755290522	1472755290586	h	72
64816	707759	Deportivo have won nothing in their history.	Deportivo have won nothing in their history.	33644108	1472755290690	1472755290770	i	73
64816	707759	Deportivo have won nothing in their history.	Deportivo have won nothing in their history.	33644111	1472755290890	1472755290986	n	78
64816	707759	Deportivo have won nothing in their history.	Deportivo have won nothing in their history.	33644116	1472755291050	1472755291138	g	71
64816	707759	Deportivo have won nothing in their history.	Deportivo have won nothing in their history.	33644121	1472755291218	1472755291330	 	32
64816	707759	Deportivo have won nothing in their history.	Deportivo have won nothing in their history.	33644157	1472755291442	1472755291530	i	73
64816	707759	Deportivo have won nothing in their history.	Deportivo have won nothing in their history.	33644158	1472755291698	1472755291818	n	78
64816	707759	Deportivo have won nothing in their history.	Deportivo have won nothing in their history.	33644162	1472755291986	1472755292090	 	32
64816	707759	Deportivo have won nothing in their history.	Deportivo have won nothing in their history.	33644166	1472755292210	1472755292322	t	84
64816	707759	Deportivo have won nothing in their history.	Deportivo have won nothing in their history.	33644170	1472755292330	1472755292402	h	72
64816	707759	Deportivo have won nothing in their history.	Deportivo have won nothing in their history.	33644324	1472755292810	1472755293018	i	73
64816	707759	Deportivo have won nothing in their history.	Deportivo have won nothing in their history.	33644332	1472755293435	1472755293586	BKSP	8
64816	707759	Deportivo have won nothing in their history.	Deportivo have won nothing in their history.	33644342	1472755294562	1472755294690	e	69
64816	707759	Deportivo have won nothing in their history.	Deportivo have won nothing in their history.	33644349	1472755294770	1472755294882	i	73
64816	707759	Deportivo have won nothing in their history.	Deportivo have won nothing in their history.	33644357	1472755295050	1472755295185	r	82
64816	707759	Deportivo have won nothing in their history.	Deportivo have won nothing in their history.	33644361	1472755295506	1472755295633	 	32
64816	707759	Deportivo have won nothing in their history.	Deportivo have won nothing in their history.	33644471	1472755295834	1472755295898	h	72
64816	707759	Deportivo have won nothing in their history.	Deportivo have won nothing in their history.	33644477	1472755296018	1472755296202	i	73
64816	707759	Deportivo have won nothing in their history.	Deportivo have won nothing in their history.	33644480	1472755296203	1472755296337	s	83
64816	707759	Deportivo have won nothing in their history.	Deportivo have won nothing in their history.	33644487	1472755296490	1472755296569	t	84
64816	707759	Deportivo have won nothing in their history.	Deportivo have won nothing in their history.	33644489	1472755296946	1472755297082	r	82
64816	707759	Deportivo have won nothing in their history.	Deportivo have won nothing in their history.	33644681	1472755297138	1472755297274	o	79
64816	707759	Deportivo have won nothing in their history.	Deportivo have won nothing in their history.	33644687	1472755298627	1472755298714	 	32
64816	707759	Deportivo have won nothing in their history.	Deportivo have won nothing in their history.	33644691	1472755299170	1472755299282	BKSP	8
64816	707759	Deportivo have won nothing in their history.	Deportivo have won nothing in their history.	33644697	1472755299660	1472755299722	.	190
64816	707795	Team Chick hasn't been in the SuperBowl every year for no reason.	Team Chick has't benn in the Super Bowl every year for no reason.	33644960	1472755302194	1472755302402	SHIFT	16
64816	707795	Team Chick hasn't been in the SuperBowl every year for no reason.	Team Chick has't benn in the Super Bowl every year for no reason.	33644963	1472755302322	1472755302403	T	84
64816	707795	Team Chick hasn't been in the SuperBowl every year for no reason.	Team Chick has't benn in the Super Bowl every year for no reason.	33644969	1472755302602	1472755302649	e	69
64816	707795	Team Chick hasn't been in the SuperBowl every year for no reason.	Team Chick has't benn in the Super Bowl every year for no reason.	33644972	1472755302826	1472755302913	a	65
64816	707795	Team Chick hasn't been in the SuperBowl every year for no reason.	Team Chick has't benn in the Super Bowl every year for no reason.	33644975	1472755303058	1472755303178	m	77
64816	707795	Team Chick hasn't been in the SuperBowl every year for no reason.	Team Chick has't benn in the Super Bowl every year for no reason.	33644978	1472755303330	1472755303465	 	32
64816	707795	Team Chick hasn't been in the SuperBowl every year for no reason.	Team Chick has't benn in the Super Bowl every year for no reason.	33645095	1472755303810	1472755304090	SHIFT	16
64816	707795	Team Chick hasn't been in the SuperBowl every year for no reason.	Team Chick has't benn in the Super Bowl every year for no reason.	33645097	1472755303986	1472755304130	C	67
64816	707795	Team Chick hasn't been in the SuperBowl every year for no reason.	Team Chick has't benn in the Super Bowl every year for no reason.	33645101	1472755304258	1472755304369	h	72
64816	707795	Team Chick hasn't been in the SuperBowl every year for no reason.	Team Chick has't benn in the Super Bowl every year for no reason.	33645106	1472755304530	1472755304713	i	73
64816	707795	Team Chick hasn't been in the SuperBowl every year for no reason.	Team Chick has't benn in the Super Bowl every year for no reason.	33645112	1472755304730	1472755304897	c	67
64816	707795	Team Chick hasn't been in the SuperBowl every year for no reason.	Team Chick has't benn in the Super Bowl every year for no reason.	33645121	1472755304994	1472755305153	k	75
64816	707795	Team Chick hasn't been in the SuperBowl every year for no reason.	Team Chick has't benn in the Super Bowl every year for no reason.	33645233	1472755305474	1472755305585	 	32
64816	707795	Team Chick hasn't been in the SuperBowl every year for no reason.	Team Chick has't benn in the Super Bowl every year for no reason.	33645236	1472755305714	1472755305809	h	72
64816	707795	Team Chick hasn't been in the SuperBowl every year for no reason.	Team Chick has't benn in the Super Bowl every year for no reason.	33645241	1472755306026	1472755306121	a	65
64816	707795	Team Chick hasn't been in the SuperBowl every year for no reason.	Team Chick has't benn in the Super Bowl every year for no reason.	33645245	1472755306234	1472755306354	s	83
64816	707795	Team Chick hasn't been in the SuperBowl every year for no reason.	Team Chick has't benn in the Super Bowl every year for no reason.	33645249	1472755306586	1472755306729	n	78
64816	707795	Team Chick hasn't been in the SuperBowl every year for no reason.	Team Chick has't benn in the Super Bowl every year for no reason.	33645450	1472755307139	1472755307300	;	186
64816	707795	Team Chick hasn't been in the SuperBowl every year for no reason.	Team Chick has't benn in the Super Bowl every year for no reason.	33645452	1472755307290	1472755307425	t	84
64816	707795	Team Chick hasn't been in the SuperBowl every year for no reason.	Team Chick has't benn in the Super Bowl every year for no reason.	33645454	1472755307962	1472755308073	BKSP	8
64816	707795	Team Chick hasn't been in the SuperBowl every year for no reason.	Team Chick has't benn in the Super Bowl every year for no reason.	33645456	1472755308146	1472755308241	BKSP	8
64816	707795	Team Chick hasn't been in the SuperBowl every year for no reason.	Team Chick has't benn in the Super Bowl every year for no reason.	33645457	1472755308667	1472755308802	'	222
64816	707795	Team Chick hasn't been in the SuperBowl every year for no reason.	Team Chick has't benn in the Super Bowl every year for no reason.	33645461	1472755308794	1472755308913	t	84
64816	707795	Team Chick hasn't been in the SuperBowl every year for no reason.	Team Chick has't benn in the Super Bowl every year for no reason.	33645465	1472755309202	1472755309321	 	32
64816	707795	Team Chick hasn't been in the SuperBowl every year for no reason.	Team Chick has't benn in the Super Bowl every year for no reason.	33645522	1472755309458	1472755309545	h	72
64816	707795	Team Chick hasn't been in the SuperBowl every year for no reason.	Team Chick has't benn in the Super Bowl every year for no reason.	33645526	1472755309778	1472755309849	BKSP	8
64816	707795	Team Chick hasn't been in the SuperBowl every year for no reason.	Team Chick has't benn in the Super Bowl every year for no reason.	33645530	1472755310026	1472755310105	b	66
64816	707795	Team Chick hasn't been in the SuperBowl every year for no reason.	Team Chick has't benn in the Super Bowl every year for no reason.	33645536	1472755310130	1472755310249	e	69
64816	707795	Team Chick hasn't been in the SuperBowl every year for no reason.	Team Chick has't benn in the Super Bowl every year for no reason.	33645538	1472755310322	1472755310377	n	78
64816	707795	Team Chick hasn't been in the SuperBowl every year for no reason.	Team Chick has't benn in the Super Bowl every year for no reason.	33645540	1472755310458	1472755310545	n	78
64816	707795	Team Chick hasn't been in the SuperBowl every year for no reason.	Team Chick has't benn in the Super Bowl every year for no reason.	33645585	1472755310674	1472755311454	 	32
64816	707795	Team Chick hasn't been in the SuperBowl every year for no reason.	Team Chick has't benn in the Super Bowl every year for no reason.	33645593	1472755311455	1472755311463	i	73
64816	707795	Team Chick hasn't been in the SuperBowl every year for no reason.	Team Chick has't benn in the Super Bowl every year for no reason.	33645600	1472755311464	1472755311479	 	78
64816	707795	Team Chick hasn't been in the SuperBowl every year for no reason.	Team Chick has't benn in the Super Bowl every year for no reason.	33645605	1472755311470	1472755311488	t	32
64816	707795	Team Chick hasn't been in the SuperBowl every year for no reason.	Team Chick has't benn in the Super Bowl every year for no reason.	33645654	1472755311538	1472755311665	e	69
64816	707795	Team Chick hasn't been in the SuperBowl every year for no reason.	Team Chick has't benn in the Super Bowl every year for no reason.	33645657	1472755311722	1472755311849	 	32
64816	707795	Team Chick hasn't been in the SuperBowl every year for no reason.	Team Chick has't benn in the Super Bowl every year for no reason.	33645663	1472755311938	1472755312081	s	83
64816	707795	Team Chick hasn't been in the SuperBowl every year for no reason.	Team Chick has't benn in the Super Bowl every year for no reason.	33645671	1472755312138	1472755312273	u	85
64816	707795	Team Chick hasn't been in the SuperBowl every year for no reason.	Team Chick has't benn in the Super Bowl every year for no reason.	33645863	1472755313218	1472755313337	p	80
64816	707795	Team Chick hasn't been in the SuperBowl every year for no reason.	Team Chick has't benn in the Super Bowl every year for no reason.	33645866	1472755313378	1472755313513	e	69
64816	707795	Team Chick hasn't been in the SuperBowl every year for no reason.	Team Chick has't benn in the Super Bowl every year for no reason.	33645873	1472755313755	1472755313937	r	82
64816	707795	Team Chick hasn't been in the SuperBowl every year for no reason.	Team Chick has't benn in the Super Bowl every year for no reason.	33645878	1472755314530	1472755314601	b	66
64816	707795	Team Chick hasn't been in the SuperBowl every year for no reason.	Team Chick has't benn in the Super Bowl every year for no reason.	33645883	1472755315129	1472755315233	BKSP	8
64816	707795	Team Chick hasn't been in the SuperBowl every year for no reason.	Team Chick has't benn in the Super Bowl every year for no reason.	33645888	1472755315322	1472755315537	SHIFT	16
64816	707795	Team Chick hasn't been in the SuperBowl every year for no reason.	Team Chick has't benn in the Super Bowl every year for no reason.	33645965	1472755315466	1472755315539	B	66
64816	707795	Team Chick hasn't been in the SuperBowl every year for no reason.	Team Chick has't benn in the Super Bowl every year for no reason.	33645968	1472755315682	1472755315817	o	79
64816	707795	Team Chick hasn't been in the SuperBowl every year for no reason.	Team Chick has't benn in the Super Bowl every year for no reason.	33645972	1472755315906	1472755316041	w	87
64816	707795	Team Chick hasn't been in the SuperBowl every year for no reason.	Team Chick has't benn in the Super Bowl every year for no reason.	33645975	1472755316194	1472755316329	l	76
64816	707795	Team Chick hasn't been in the SuperBowl every year for no reason.	Team Chick has't benn in the Super Bowl every year for no reason.	33645978	1472755316955	1472755317081	 	32
64816	707795	Team Chick hasn't been in the SuperBowl every year for no reason.	Team Chick has't benn in the Super Bowl every year for no reason.	33645982	1472755317194	1472755317337	e	69
64816	707795	Team Chick hasn't been in the SuperBowl every year for no reason.	Team Chick has't benn in the Super Bowl every year for no reason.	33646080	1472755317340	1472755317433	v	86
64816	707795	Team Chick hasn't been in the SuperBowl every year for no reason.	Team Chick has't benn in the Super Bowl every year for no reason.	33646085	1472755317442	1472755317521	e	69
64816	707795	Team Chick hasn't been in the SuperBowl every year for no reason.	Team Chick has't benn in the Super Bowl every year for no reason.	33646090	1472755318513	1472755318609	r	82
64816	707795	Team Chick hasn't been in the SuperBowl every year for no reason.	Team Chick has't benn in the Super Bowl every year for no reason.	33646093	1472755318721	1472755318849	y	89
64816	707795	Team Chick hasn't been in the SuperBowl every year for no reason.	Team Chick has't benn in the Super Bowl every year for no reason.	33646096	1472755319041	1472755319161	 	32
64816	707795	Team Chick hasn't been in the SuperBowl every year for no reason.	Team Chick has't benn in the Super Bowl every year for no reason.	33646196	1472755319314	1472755319457	y	89
64816	707795	Team Chick hasn't been in the SuperBowl every year for no reason.	Team Chick has't benn in the Super Bowl every year for no reason.	33646200	1472755319513	1472755319625	e	69
64816	707795	Team Chick hasn't been in the SuperBowl every year for no reason.	Team Chick has't benn in the Super Bowl every year for no reason.	33646204	1472755319922	1472755319985	r	82
64816	707795	Team Chick hasn't been in the SuperBowl every year for no reason.	Team Chick has't benn in the Super Bowl every year for no reason.	33646209	1472755320393	1472755320481	BKSP	8
64816	707795	Team Chick hasn't been in the SuperBowl every year for no reason.	Team Chick has't benn in the Super Bowl every year for no reason.	33646214	1472755320513	1472755320609	a	65
64816	707795	Team Chick hasn't been in the SuperBowl every year for no reason.	Team Chick has't benn in the Super Bowl every year for no reason.	33646218	1472755320729	1472755320817	r	82
64816	707795	Team Chick hasn't been in the SuperBowl every year for no reason.	Team Chick has't benn in the Super Bowl every year for no reason.	33646327	1472755320969	1472755321065	 	32
64816	707795	Team Chick hasn't been in the SuperBowl every year for no reason.	Team Chick has't benn in the Super Bowl every year for no reason.	33646332	1472755321137	1472755321257	f	70
64816	707795	Team Chick hasn't been in the SuperBowl every year for no reason.	Team Chick has't benn in the Super Bowl every year for no reason.	33646336	1472755321793	1472755321897	o	79
64816	707795	Team Chick hasn't been in the SuperBowl every year for no reason.	Team Chick has't benn in the Super Bowl every year for no reason.	33646340	1472755321962	1472755322065	r	82
64816	707795	Team Chick hasn't been in the SuperBowl every year for no reason.	Team Chick has't benn in the Super Bowl every year for no reason.	33646347	1472755322457	1472755322577	 	32
64816	707795	Team Chick hasn't been in the SuperBowl every year for no reason.	Team Chick has't benn in the Super Bowl every year for no reason.	33646437	1472755322722	1472755322793	b	66
64816	707795	Team Chick hasn't been in the SuperBowl every year for no reason.	Team Chick has't benn in the Super Bowl every year for no reason.	33646444	1472755322937	1472755323065	o	79
64816	707795	Team Chick hasn't been in the SuperBowl every year for no reason.	Team Chick has't benn in the Super Bowl every year for no reason.	33646459	1472755323234	1472755323385	 	32
64816	707795	Team Chick hasn't been in the SuperBowl every year for no reason.	Team Chick has't benn in the Super Bowl every year for no reason.	33646472	1472755323521	1472755323617	r	82
64816	707795	Team Chick hasn't been in the SuperBowl every year for no reason.	Team Chick has't benn in the Super Bowl every year for no reason.	33646478	1472755323753	1472755323817	e	69
64816	707795	Team Chick hasn't been in the SuperBowl every year for no reason.	Team Chick has't benn in the Super Bowl every year for no reason.	33646797	1472755323985	1472755324105	s	83
64816	707795	Team Chick hasn't been in the SuperBowl every year for no reason.	Team Chick has't benn in the Super Bowl every year for no reason.	33646804	1472755324146	1472755324225	o	79
64816	707795	Team Chick hasn't been in the SuperBowl every year for no reason.	Team Chick has't benn in the Super Bowl every year for no reason.	33646811	1472755324410	1472755324505	n	78
64816	707795	Team Chick hasn't been in the SuperBowl every year for no reason.	Team Chick has't benn in the Super Bowl every year for no reason.	33646820	1472755325627	1472755326403	BKSP	8
64816	707795	Team Chick hasn't been in the SuperBowl every year for no reason.	Team Chick has't benn in the Super Bowl every year for no reason.	33646830	1472755326545	1472755326633	BKSP	8
64816	707795	Team Chick hasn't been in the SuperBowl every year for no reason.	Team Chick has't benn in the Super Bowl every year for no reason.	33646835	1472755326705	1472755326785	BKSP	8
64816	707795	Team Chick hasn't been in the SuperBowl every year for no reason.	Team Chick has't benn in the Super Bowl every year for no reason.	33646841	1472755326857	1472755326945	BKSP	8
64816	707795	Team Chick hasn't been in the SuperBowl every year for no reason.	Team Chick has't benn in the Super Bowl every year for no reason.	33646845	1472755327201	1472755327281	n	78
64816	707795	Team Chick hasn't been in the SuperBowl every year for no reason.	Team Chick has't benn in the Super Bowl every year for no reason.	33646850	1472755327417	1472755327569	o	79
64816	707795	Team Chick hasn't been in the SuperBowl every year for no reason.	Team Chick has't benn in the Super Bowl every year for no reason.	33646936	1472755327929	1472755328089	 	32
64816	707795	Team Chick hasn't been in the SuperBowl every year for no reason.	Team Chick has't benn in the Super Bowl every year for no reason.	33646940	1472755328209	1472755328313	r	82
64816	707795	Team Chick hasn't been in the SuperBowl every year for no reason.	Team Chick has't benn in the Super Bowl every year for no reason.	33646949	1472755328417	1472755328505	e	69
64816	707795	Team Chick hasn't been in the SuperBowl every year for no reason.	Team Chick has't benn in the Super Bowl every year for no reason.	33646955	1472755328785	1472755328945	s	83
64816	707795	Team Chick hasn't been in the SuperBowl every year for no reason.	Team Chick has't benn in the Super Bowl every year for no reason.	33646960	1472755329105	1472755329241	o	79
64816	707795	Team Chick hasn't been in the SuperBowl every year for no reason.	Team Chick has't benn in the Super Bowl every year for no reason.	33647071	1472755329393	1472755329473	n	78
64816	707795	Team Chick hasn't been in the SuperBowl every year for no reason.	Team Chick has't benn in the Super Bowl every year for no reason.	33647078	1472755329673	1472755330449	.	190
64816	707847	Have a good evening.	Have a good evening.	33647336	1472755332569	1472755332665	h	72
64816	707847	Have a good evening.	Have a good evening.	33647338	1472755332681	1472755332809	a	65
64816	707847	Have a good evening.	Have a good evening.	33647343	1472755332841	1472755332929	v	86
64816	707847	Have a good evening.	Have a good evening.	33647348	1472755333137	1472755333193	BKSP	8
64816	707847	Have a good evening.	Have a good evening.	33647354	1472755333273	1472755333329	BKSP	8
64816	707847	Have a good evening.	Have a good evening.	33647364	1472755333417	1472755333481	BKSP	8
64816	707847	Have a good evening.	Have a good evening.	33647370	1472755333577	1472755333769	SHIFT	16
64816	707847	Have a good evening.	Have a good evening.	33647374	1472755333745	1472755333825	H	72
64816	707847	Have a good evening.	Have a good evening.	33647381	1472755333913	1472755334025	a	65
64816	707847	Have a good evening.	Have a good evening.	33647583	1472755333993	1472755334081	v	86
64816	707847	Have a good evening.	Have a good evening.	33647588	1472755334169	1472755334273	e	69
64816	707847	Have a good evening.	Have a good evening.	33647591	1472755334337	1472755334449	 	32
64816	707847	Have a good evening.	Have a good evening.	33647593	1472755334785	1472755334904	s	83
64816	707847	Have a good evening.	Have a good evening.	33647598	1472755335401	1472755335457	BKSP	8
64816	707847	Have a good evening.	Have a good evening.	33647604	1472755335529	1472755335609	BKSP	8
64816	707847	Have a good evening.	Have a good evening.	33647609	1472755336249	1472755336369	a	65
64816	707847	Have a good evening.	Have a good evening.	33647615	1472755336401	1472755336537	 	32
64816	707847	Have a good evening.	Have a good evening.	33647676	1472755336697	1472755336729	g	71
64816	707847	Have a good evening.	Have a good evening.	33647678	1472755337089	1472755337161	o	79
64816	707847	Have a good evening.	Have a good evening.	33647681	1472755337241	1472755337321	o	79
64816	707847	Have a good evening.	Have a good evening.	33647685	1472755337337	1472755337473	d	68
64816	707847	Have a good evening.	Have a good evening.	33647688	1472755337577	1472755337713	 	32
64816	707847	Have a good evening.	Have a good evening.	33647772	1472755338001	1472755338153	e	69
64816	707847	Have a good evening.	Have a good evening.	33647775	1472755338185	1472755338288	v	86
64816	707847	Have a good evening.	Have a good evening.	33647779	1472755338281	1472755338401	e	69
64816	707847	Have a good evening.	Have a good evening.	33647787	1472755338641	1472755338737	n	78
64816	707847	Have a good evening.	Have a good evening.	33647798	1472755338849	1472755338953	i	73
64816	707847	Have a good evening.	Have a good evening.	33647876	1472755339065	1472755339136	n	78
64816	707847	Have a good evening.	Have a good evening.	33647884	1472755339217	1472755339329	g	71
64816	707847	Have a good evening.	Have a good evening.	33647892	1472755339473	1472755339601	.	190
64816	707859	Got your back while you pick up wine.	Got your back while you pick up wine.	33648114	1472755311481	1472755342457	h	84
64816	707859	Got your back while you pick up wine.	Got your back while you pick up wine.	33648102	1472755341833	1472755342033	SHIFT	16
64816	707859	Got your back while you pick up wine.	Got your back while you pick up wine.	33648098	1472755341952	1472755342025	G	71
64816	707859	Got your back while you pick up wine.	Got your back while you pick up wine.	33648109	1472755342193	1472755342305	o	79
64816	707859	Got your back while you pick up wine.	Got your back while you pick up wine.	33648337	1472755342329	1472755343488	t	84
64816	707859	Got your back while you pick up wine.	Got your back while you pick up wine.	33648119	1472755342513	1472755342625	 	32
64816	707859	Got your back while you pick up wine.	Got your back while you pick up wine.	33648123	1472755342761	1472755342825	y	89
64816	707859	Got your back while you pick up wine.	Got your back while you pick up wine.	33648324	1472755343001	1472755343089	o	79
64816	707859	Got your back while you pick up wine.	Got your back while you pick up wine.	33648330	1472755343217	1472755343304	u	85
64816	707859	Got your back while you pick up wine.	Got your back while you pick up wine.	33648346	1472755343962	1472755344064	BKSP	8
64816	707859	Got your back while you pick up wine.	Got your back while you pick up wine.	33648350	1472755344377	1472755344440	BKSP	8
64816	707859	Got your back while you pick up wine.	Got your back while you pick up wine.	33648359	1472755344537	1472755344608	r	82
64816	707859	Got your back while you pick up wine.	Got your back while you pick up wine.	33648368	1472755345362	1472755345432	BKSP	8
64816	707859	Got your back while you pick up wine.	Got your back while you pick up wine.	33648374	1472755345761	1472755345848	u	85
64816	707859	Got your back while you pick up wine.	Got your back while you pick up wine.	33648410	1472755345969	1472755346001	r	82
64816	707859	Got your back while you pick up wine.	Got your back while you pick up wine.	33648411	1472755346057	1472755346152	 	32
64816	707859	Got your back while you pick up wine.	Got your back while you pick up wine.	33648416	1472755346257	1472755346344	b	66
64816	707859	Got your back while you pick up wine.	Got your back while you pick up wine.	33648422	1472755346337	1472755346424	a	65
64816	707859	Got your back while you pick up wine.	Got your back while you pick up wine.	33648427	1472755346553	1472755346688	c	67
64816	707859	Got your back while you pick up wine.	Got your back while you pick up wine.	33648500	1472755346705	1472755346817	k	75
64816	707859	Got your back while you pick up wine.	Got your back while you pick up wine.	33648504	1472755346953	1472755347032	 	32
64816	707859	Got your back while you pick up wine.	Got your back while you pick up wine.	33648506	1472755347081	1472755347216	w	87
64816	707859	Got your back while you pick up wine.	Got your back while you pick up wine.	33648509	1472755347241	1472755347328	h	72
64816	707859	Got your back while you pick up wine.	Got your back while you pick up wine.	33648512	1472755347457	1472755347560	i	73
64816	707859	Got your back while you pick up wine.	Got your back while you pick up wine.	33648571	1472755347729	1472755347848	l	76
64816	707859	Got your back while you pick up wine.	Got your back while you pick up wine.	33648576	1472755347865	1472755347992	e	69
64816	707859	Got your back while you pick up wine.	Got your back while you pick up wine.	33648579	1472755348073	1472755348160	 	32
64816	707859	Got your back while you pick up wine.	Got your back while you pick up wine.	33648582	1472755348337	1472755348424	y	89
64816	707859	Got your back while you pick up wine.	Got your back while you pick up wine.	33648587	1472755348625	1472755348736	o	79
64816	707859	Got your back while you pick up wine.	Got your back while you pick up wine.	33648678	1472755348857	1472755348952	u	85
64816	707859	Got your back while you pick up wine.	Got your back while you pick up wine.	33648680	1472755349073	1472755349176	 	32
64816	707859	Got your back while you pick up wine.	Got your back while you pick up wine.	33648684	1472755350161	1472755350248	p	80
64816	707859	Got your back while you pick up wine.	Got your back while you pick up wine.	33648687	1472755350377	1472755350456	i	73
64816	707859	Got your back while you pick up wine.	Got your back while you pick up wine.	33648692	1472755350488	1472755350648	c	67
64816	707859	Got your back while you pick up wine.	Got your back while you pick up wine.	33648759	1472755350665	1472755350768	k	75
64816	707859	Got your back while you pick up wine.	Got your back while you pick up wine.	33648762	1472755350905	1472755351040	 	32
64816	707859	Got your back while you pick up wine.	Got your back while you pick up wine.	33648764	1472755351192	1472755351320	u	85
64816	707859	Got your back while you pick up wine.	Got your back while you pick up wine.	33648768	1472755351769	1472755351848	o	79
64816	707859	Got your back while you pick up wine.	Got your back while you pick up wine.	33648774	1472755352177	1472755352312	 	32
64816	707859	Got your back while you pick up wine.	Got your back while you pick up wine.	33648893	1472755352328	1472755352424	w	87
64816	707859	Got your back while you pick up wine.	Got your back while you pick up wine.	33648898	1472755352585	1472755352640	BKSP	8
64816	707859	Got your back while you pick up wine.	Got your back while you pick up wine.	33648904	1472755352737	1472755352792	BKSP	8
64816	707859	Got your back while you pick up wine.	Got your back while you pick up wine.	33648910	1472755352881	1472755352984	BKSP	8
64816	707859	Got your back while you pick up wine.	Got your back while you pick up wine.	33648916	1472755353473	1472755353568	p	80
64816	707859	Got your back while you pick up wine.	Got your back while you pick up wine.	33648922	1472755353681	1472755353784	 	32
64816	707859	Got your back while you pick up wine.	Got your back while you pick up wine.	33648929	1472755353825	1472755353936	w	87
64816	707859	Got your back while you pick up wine.	Got your back while you pick up wine.	33648935	1472755354001	1472755354096	i	73
64816	707859	Got your back while you pick up wine.	Got your back while you pick up wine.	33648968	1472755354249	1472755354359	n	78
64816	707859	Got your back while you pick up wine.	Got your back while you pick up wine.	33648972	1472755354353	1472755354472	e	69
64816	707859	Got your back while you pick up wine.	Got your back while you pick up wine.	33648976	1472755354585	1472755354704	.	190
64816	707884	I didn't expect them to hand over the sites.	I didn't expect them to hand over the sites.	33649307	1472755343345	1472755358816	t	84
64816	707884	I didn't expect them to hand over the sites.	I didn't expect them to hand over the sites.	33649203	1472755356912	1472755357096	SHIFT	16
64816	707884	I didn't expect them to hand over the sites.	I didn't expect them to hand over the sites.	33649207	1472755357016	1472755357104	I	73
64816	707884	I didn't expect them to hand over the sites.	I didn't expect them to hand over the sites.	33649211	1472755357217	1472755357336	 	32
64816	707884	I didn't expect them to hand over the sites.	I didn't expect them to hand over the sites.	33649215	1472755357417	1472755357595	s	83
64816	707884	I didn't expect them to hand over the sites.	I didn't expect them to hand over the sites.	33649220	1472755357569	1472755357704	i	73
64816	707884	I didn't expect them to hand over the sites.	I didn't expect them to hand over the sites.	33649225	1472755357980	1472755357989	BKSP	8
64816	707884	I didn't expect them to hand over the sites.	I didn't expect them to hand over the sites.	33649229	1472755358048	1472755358112	BKSP	8
64816	707884	I didn't expect them to hand over the sites.	I didn't expect them to hand over the sites.	33649234	1472755358121	1472755358248	d	68
64816	707884	I didn't expect them to hand over the sites.	I didn't expect them to hand over the sites.	33649291	1472755358265	1472755358347	i	73
64816	707884	I didn't expect them to hand over the sites.	I didn't expect them to hand over the sites.	33649294	1472755358329	1472755358440	d	68
64816	707884	I didn't expect them to hand over the sites.	I didn't expect them to hand over the sites.	33649300	1472755358505	1472755358632	n	78
64816	707884	I didn't expect them to hand over the sites.	I didn't expect them to hand over the sites.	33649573	1472755358672	1472755362752	t	84
64816	707884	I didn't expect them to hand over the sites.	I didn't expect them to hand over the sites.	33649313	1472755359162	1472755359296	 	32
64816	707884	I didn't expect them to hand over the sites.	I didn't expect them to hand over the sites.	33649520	1472755360089	1472755360192	e	69
64816	707884	I didn't expect them to hand over the sites.	I didn't expect them to hand over the sites.	33649524	1472755360376	1472755360512	c	67
64816	707884	I didn't expect them to hand over the sites.	I didn't expect them to hand over the sites.	33649527	1472755360568	1472755360768	p	80
64816	707884	I didn't expect them to hand over the sites.	I didn't expect them to hand over the sites.	33649529	1472755361513	1472755361640	e	69
64816	707884	I didn't expect them to hand over the sites.	I didn't expect them to hand over the sites.	33649532	1472755362328	1472755362432	c	67
64816	707884	I didn't expect them to hand over the sites.	I didn't expect them to hand over the sites.	33649585	1472755362640	1472755363241	t	84
64816	707884	I didn't expect them to hand over the sites.	I didn't expect them to hand over the sites.	33649578	1472755362920	1472755363048	 	32
64816	707884	I didn't expect them to hand over the sites.	I didn't expect them to hand over the sites.	33649701	1472755363104	1472755364728	t	84
64816	707884	I didn't expect them to hand over the sites.	I didn't expect them to hand over the sites.	33649592	1472755363233	1472755363312	h	72
64816	707884	I didn't expect them to hand over the sites.	I didn't expect them to hand over the sites.	33649599	1472755363440	1472755363584	i	73
64816	707884	I didn't expect them to hand over the sites.	I didn't expect them to hand over the sites.	33649680	1472755364516	1472755364525	BKSP	8
64816	707884	I didn't expect them to hand over the sites.	I didn't expect them to hand over the sites.	33649684	1472755364527	1472755364533	e	69
64816	707884	I didn't expect them to hand over the sites.	I didn't expect them to hand over the sites.	33649691	1472755364534	1472755364540	m	77
64816	707884	I didn't expect them to hand over the sites.	I didn't expect them to hand over the sites.	33649697	1472755364541	1472755364602	 	32
64816	707884	I didn't expect them to hand over the sites.	I didn't expect them to hand over the sites.	33649971	1472755364592	1472755369936	t	84
64816	707884	I didn't expect them to hand over the sites.	I didn't expect them to hand over the sites.	33649705	1472755364912	1472755365088	o	79
64816	707884	I didn't expect them to hand over the sites.	I didn't expect them to hand over the sites.	33649779	1472755365112	1472755365264	 	32
64816	707884	I didn't expect them to hand over the sites.	I didn't expect them to hand over the sites.	33649782	1472755365504	1472755365616	h	72
64816	707884	I didn't expect them to hand over the sites.	I didn't expect them to hand over the sites.	33649783	1472755365632	1472755365752	a	65
64816	707884	I didn't expect them to hand over the sites.	I didn't expect them to hand over the sites.	33649784	1472755365801	1472755365888	v	86
64816	707884	I didn't expect them to hand over the sites.	I didn't expect them to hand over the sites.	33649785	1472755366321	1472755366408	BKSP	8
64816	707884	I didn't expect them to hand over the sites.	I didn't expect them to hand over the sites.	33649786	1472755366584	1472755366695	n	78
64816	707884	I didn't expect them to hand over the sites.	I didn't expect them to hand over the sites.	33649823	1472755366688	1472755366824	d	68
64816	707884	I didn't expect them to hand over the sites.	I didn't expect them to hand over the sites.	33649825	1472755366880	1472755366992	 	32
64816	707884	I didn't expect them to hand over the sites.	I didn't expect them to hand over the sites.	33649827	1472755367152	1472755367272	o	79
64816	707884	I didn't expect them to hand over the sites.	I didn't expect them to hand over the sites.	33649831	1472755367400	1472755367480	u	85
64816	707884	I didn't expect them to hand over the sites.	I didn't expect them to hand over the sites.	33649838	1472755367688	1472755367784	v	86
64816	707884	I didn't expect them to hand over the sites.	I didn't expect them to hand over the sites.	33649842	1472755367800	1472755367904	e	69
64816	707884	I didn't expect them to hand over the sites.	I didn't expect them to hand over the sites.	33649941	1472755368321	1472755368400	BKSP	8
64816	707884	I didn't expect them to hand over the sites.	I didn't expect them to hand over the sites.	33649945	1472755368472	1472755368544	BKSP	8
64816	707884	I didn't expect them to hand over the sites.	I didn't expect them to hand over the sites.	33649949	1472755368624	1472755368704	BKSP	8
64816	707884	I didn't expect them to hand over the sites.	I didn't expect them to hand over the sites.	33649951	1472755368944	1472755369072	v	86
64816	707884	I didn't expect them to hand over the sites.	I didn't expect them to hand over the sites.	33649955	1472755369056	1472755369168	e	69
64816	707884	I didn't expect them to hand over the sites.	I didn't expect them to hand over the sites.	33649958	1472755369264	1472755369384	r	82
64816	707884	I didn't expect them to hand over the sites.	I didn't expect them to hand over the sites.	33649962	1472755369552	1472755369680	 	32
64816	707884	I didn't expect them to hand over the sites.	I didn't expect them to hand over the sites.	33650183	1472755369800	1472755372992	t	84
64816	707884	I didn't expect them to hand over the sites.	I didn't expect them to hand over the sites.	33650064	1472755369896	1472755369992	h	72
64816	707884	I didn't expect them to hand over the sites.	I didn't expect them to hand over the sites.	33650066	1472755370080	1472755370232	i	73
64816	707884	I didn't expect them to hand over the sites.	I didn't expect them to hand over the sites.	33650067	1472755370256	1472755370392	s	83
64816	707884	I didn't expect them to hand over the sites.	I didn't expect them to hand over the sites.	33650068	1472755370512	1472755370656	 	32
64816	707884	I didn't expect them to hand over the sites.	I didn't expect them to hand over the sites.	33650069	1472755371080	1472755371128	BKSP	8
64816	707884	I didn't expect them to hand over the sites.	I didn't expect them to hand over the sites.	33650071	1472755371224	1472755371280	BKSP	8
64816	707884	I didn't expect them to hand over the sites.	I didn't expect them to hand over the sites.	33650075	1472755371352	1472755371456	BKSP	8
64816	707884	I didn't expect them to hand over the sites.	I didn't expect them to hand over the sites.	33650083	1472755371512	1472755371648	e	69
64816	707884	I didn't expect them to hand over the sites.	I didn't expect them to hand over the sites.	33650091	1472755371704	1472755371840	 	32
64816	707884	I didn't expect them to hand over the sites.	I didn't expect them to hand over the sites.	33650165	1472755371864	1472755372032	s	83
64816	707884	I didn't expect them to hand over the sites.	I didn't expect them to hand over the sites.	33650169	1472755372112	1472755372216	u	85
64816	707884	I didn't expect them to hand over the sites.	I didn't expect them to hand over the sites.	33650172	1472755372448	1472755372544	BKSP	8
64816	707884	I didn't expect them to hand over the sites.	I didn't expect them to hand over the sites.	33650178	1472755372704	1472755372856	i	73
64816	707884	I didn't expect them to hand over the sites.	I didn't expect them to hand over the sites.	33650189	1472755373160	1472755373271	e	69
64816	707884	I didn't expect them to hand over the sites.	I didn't expect them to hand over the sites.	33650215	1472755373424	1472755373520	s	83
64816	707884	I didn't expect them to hand over the sites.	I didn't expect them to hand over the sites.	33650217	1472755373640	1472755373752	.	190
64816	707911	The Auction this year is hosted by EGS.	The Auction this year is hosted by EGS.	33650433	1472755372920	1472755376240	t	84
64816	707911	The Auction this year is hosted by EGS.	The Auction this year is hosted by EGS.	33650437	1472755376080	1472755376248	SHIFT	16
64816	707911	The Auction this year is hosted by EGS.	The Auction this year is hosted by EGS.	33650600	1472755376200	1472755378496	T	84
64816	707911	The Auction this year is hosted by EGS.	The Auction this year is hosted by EGS.	33650440	1472755376376	1472755376480	h	72
64816	707911	The Auction this year is hosted by EGS.	The Auction this year is hosted by EGS.	33650445	1472755376528	1472755376648	e	69
64816	707911	The Auction this year is hosted by EGS.	The Auction this year is hosted by EGS.	33650449	1472755376720	1472755376872	 	32
64816	707911	The Auction this year is hosted by EGS.	The Auction this year is hosted by EGS.	33650454	1472755376888	1472755377224	SHIFT	16
64816	707911	The Auction this year is hosted by EGS.	The Auction this year is hosted by EGS.	33650596	1472755377144	1472755377288	A	65
64816	707911	The Auction this year is hosted by EGS.	The Auction this year is hosted by EGS.	33650598	1472755377736	1472755377864	u	85
64816	707911	The Auction this year is hosted by EGS.	The Auction this year is hosted by EGS.	33650610	1472755378296	1472755379560	t	84
64816	707911	The Auction this year is hosted by EGS.	The Auction this year is hosted by EGS.	33650603	1472755379371	1472755379378	BKSP	8
64816	707911	The Auction this year is hosted by EGS.	The Auction this year is hosted by EGS.	33650607	1472755379379	1472755379398	c	67
64816	707911	The Auction this year is hosted by EGS.	The Auction this year is hosted by EGS.	33650700	1472755379480	1472755380904	t	84
64816	707911	The Auction this year is hosted by EGS.	The Auction this year is hosted by EGS.	33650614	1472755379776	1472755379864	i	73
64816	707911	The Auction this year is hosted by EGS.	The Auction this year is hosted by EGS.	33650686	1472755379984	1472755380056	o	79
64816	707911	The Auction this year is hosted by EGS.	The Auction this year is hosted by EGS.	33650690	1472755380313	1472755380440	n	78
64816	707911	The Auction this year is hosted by EGS.	The Auction this year is hosted by EGS.	33650695	1472755380511	1472755380640	 	32
64816	707911	The Auction this year is hosted by EGS.	The Auction this year is hosted by EGS.	33651304	1472755380800	1472755390655	t	84
64816	707911	The Auction this year is hosted by EGS.	The Auction this year is hosted by EGS.	33650703	1472755381056	1472755381120	h	72
64816	707911	The Auction this year is hosted by EGS.	The Auction this year is hosted by EGS.	33650735	1472755381248	1472755381327	i	73
64816	707911	The Auction this year is hosted by EGS.	The Auction this year is hosted by EGS.	33650738	1472755381392	1472755381534	s	83
64816	707911	The Auction this year is hosted by EGS.	The Auction this year is hosted by EGS.	33650741	1472755381520	1472755381624	 	32
64816	707911	The Auction this year is hosted by EGS.	The Auction this year is hosted by EGS.	33650743	1472755381680	1472755381792	y	89
64816	707911	The Auction this year is hosted by EGS.	The Auction this year is hosted by EGS.	33650746	1472755381800	1472755381888	e	69
64816	707911	The Auction this year is hosted by EGS.	The Auction this year is hosted by EGS.	33650829	1472755382424	1472755382528	a	65
64816	707911	The Auction this year is hosted by EGS.	The Auction this year is hosted by EGS.	33650834	1472755382720	1472755382880	r	82
64816	707911	The Auction this year is hosted by EGS.	The Auction this year is hosted by EGS.	33650844	1472755383008	1472755383192	 	32
64816	707911	The Auction this year is hosted by EGS.	The Auction this year is hosted by EGS.	33650851	1472755383200	1472755383319	i	73
64816	707911	The Auction this year is hosted by EGS.	The Auction this year is hosted by EGS.	33650911	1472755383280	1472755383431	s	83
64816	707911	The Auction this year is hosted by EGS.	The Auction this year is hosted by EGS.	33650915	1472755383496	1472755383655	 	32
64816	707911	The Auction this year is hosted by EGS.	The Auction this year is hosted by EGS.	33650922	1472755383824	1472755383936	s	83
64816	707911	The Auction this year is hosted by EGS.	The Auction this year is hosted by EGS.	33650927	1472755383912	1472755384023	h	72
64816	707911	The Auction this year is hosted by EGS.	The Auction this year is hosted by EGS.	33650933	1472755384223	1472755384327	=	187
64816	707911	The Auction this year is hosted by EGS.	The Auction this year is hosted by EGS.	33650939	1472755384392	1472755384464	=	187
64816	707911	The Auction this year is hosted by EGS.	The Auction this year is hosted by EGS.	33651133	1472755384768	1472755385007	BKSP	8
64816	707911	The Auction this year is hosted by EGS.	The Auction this year is hosted by EGS.	33651135	1472755385080	1472755385159	BKSP	8
64816	707911	The Auction this year is hosted by EGS.	The Auction this year is hosted by EGS.	33651139	1472755385240	1472755385319	BKSP	8
64816	707911	The Auction this year is hosted by EGS.	The Auction this year is hosted by EGS.	33651143	1472755385416	1472755385519	BKSP	8
64816	707911	The Auction this year is hosted by EGS.	The Auction this year is hosted by EGS.	33651149	1472755385760	1472755385799	g	71
64816	707911	The Auction this year is hosted by EGS.	The Auction this year is hosted by EGS.	33651154	1472755385984	1472755386127	i	73
64816	707911	The Auction this year is hosted by EGS.	The Auction this year is hosted by EGS.	33651158	1472755386529	1472755386607	BKSP	8
64816	707911	The Auction this year is hosted by EGS.	The Auction this year is hosted by EGS.	33651163	1472755386696	1472755386775	BKSP	8
64816	707911	The Auction this year is hosted by EGS.	The Auction this year is hosted by EGS.	33651167	1472755387256	1472755387327	h	72
64816	707911	The Auction this year is hosted by EGS.	The Auction this year is hosted by EGS.	33651173	1472755387480	1472755387735	i	73
64816	707911	The Auction this year is hosted by EGS.	The Auction this year is hosted by EGS.	33651176	1472755388008	1472755388119	BKSP	8
64816	707911	The Auction this year is hosted by EGS.	The Auction this year is hosted by EGS.	33651183	1472755388328	1472755388447	o	79
64816	707911	The Auction this year is hosted by EGS.	The Auction this year is hosted by EGS.	33651300	1472755388504	1472755388670	s	83
64816	707911	The Auction this year is hosted by EGS.	The Auction this year is hosted by EGS.	33651310	1472755390840	1472755390927	e	69
64816	707911	The Auction this year is hosted by EGS.	The Auction this year is hosted by EGS.	33651313	1472755391064	1472755391175	d	68
64816	707911	The Auction this year is hosted by EGS.	The Auction this year is hosted by EGS.	33651316	1472755391200	1472755391303	 	32
64816	707911	The Auction this year is hosted by EGS.	The Auction this year is hosted by EGS.	33651366	1472755391400	1472755391495	b	66
64816	707911	The Auction this year is hosted by EGS.	The Auction this year is hosted by EGS.	33651368	1472755391592	1472755391711	y	89
64816	707911	The Auction this year is hosted by EGS.	The Auction this year is hosted by EGS.	33651373	1472755391848	1472755391943	 	32
64816	707911	The Auction this year is hosted by EGS.	The Auction this year is hosted by EGS.	33651394	1472755392400	1472755393296	SHIFT	16
64816	707911	The Auction this year is hosted by EGS.	The Auction this year is hosted by EGS.	33651378	1472755392672	1472755392791	E	69
64816	707911	The Auction this year is hosted by EGS.	The Auction this year is hosted by EGS.	33651383	1472755392872	1472755392951	G	71
64816	707911	The Auction this year is hosted by EGS.	The Auction this year is hosted by EGS.	33651393	1472755393096	1472755393231	S	83
64816	707911	The Auction this year is hosted by EGS.	The Auction this year is hosted by EGS.	33651395	1472755393504	1472755393631	.	190
64816	707940	Scotty and I will be in NYC.	Scotty and i will be NYC	33651625	1472755390521	1472755398463	t	84
64816	707940	Scotty and I will be in NYC.	Scotty and i will be NYC	33651617	1472755396143	1472755396919	SHIFT	16
64816	707940	Scotty and I will be in NYC.	Scotty and i will be NYC	33651614	1472755396759	1472755396912	S	83
64816	707940	Scotty and I will be in NYC.	Scotty and i will be NYC	33651620	1472755397066	1472755397151	c	67
64816	707940	Scotty and I will be in NYC.	Scotty and i will be NYC	33651623	1472755397815	1472755397919	o	79
64816	707940	Scotty and I will be in NYC.	Scotty and i will be NYC	33651831	1472755398353	1472755401911	t	84
64816	707940	Scotty and I will be in NYC.	Scotty and i will be NYC	33651627	1472755398768	1472755398983	y	89
64816	707940	Scotty and I will be in NYC.	Scotty and i will be NYC	33651806	1472755399233	1472755399343	 	32
64816	707940	Scotty and I will be in NYC.	Scotty and i will be NYC	33651807	1472755399440	1472755399566	a	65
64816	707940	Scotty and I will be in NYC.	Scotty and i will be NYC	33651810	1472755399559	1472755399679	n	78
64816	707940	Scotty and I will be in NYC.	Scotty and i will be NYC	33651813	1472755399736	1472755399871	d	68
64816	707940	Scotty and I will be in NYC.	Scotty and i will be NYC	33651816	1472755400270	1472755400343	BKSP	8
64816	707940	Scotty and I will be in NYC.	Scotty and i will be NYC	33651819	1472755400431	1472755400495	BKSP	8
64816	707940	Scotty and I will be in NYC.	Scotty and i will be NYC	33651822	1472755400567	1472755400639	BKSP	8
64816	707940	Scotty and I will be in NYC.	Scotty and i will be NYC	33651826	1472755400719	1472755400791	BKSP	8
64816	707940	Scotty and I will be in NYC.	Scotty and i will be NYC	33651829	1472755400879	1472755400983	BKSP	8
64816	707940	Scotty and I will be in NYC.	Scotty and i will be NYC	33651840	1472755402024	1472755402167	y	89
64816	707940	Scotty and I will be in NYC.	Scotty and i will be NYC	33651842	1472755402192	1472755402263	 	32
64816	707940	Scotty and I will be in NYC.	Scotty and i will be NYC	33651846	1472755402304	1472755402423	a	65
64816	707940	Scotty and I will be in NYC.	Scotty and i will be NYC	33651851	1472755402399	1472755402495	n	78
64816	707940	Scotty and I will be in NYC.	Scotty and i will be NYC	33651858	1472755402551	1472755402671	d	68
64816	707940	Scotty and I will be in NYC.	Scotty and i will be NYC	33651941	1472755402674	1472755402743	 	32
64816	707940	Scotty and I will be in NYC.	Scotty and i will be NYC	33651947	1472755402887	1472755403039	i	73
64816	707940	Scotty and I will be in NYC.	Scotty and i will be NYC	33651953	1472755403704	1472755403871	 	32
64816	707940	Scotty and I will be in NYC.	Scotty and i will be NYC	33651957	1472755403951	1472755404087	w	87
64816	707940	Scotty and I will be in NYC.	Scotty and i will be NYC	33652010	1472755404080	1472755404167	i	73
64816	707940	Scotty and I will be in NYC.	Scotty and i will be NYC	33652014	1472755404328	1472755404407	l	76
64816	707940	Scotty and I will be in NYC.	Scotty and i will be NYC	33652016	1472755404471	1472755404567	l	76
64816	707940	Scotty and I will be in NYC.	Scotty and i will be NYC	33652018	1472755404727	1472755404823	 	32
64816	707940	Scotty and I will be in NYC.	Scotty and i will be NYC	33652021	1472755404943	1472755405031	b	66
64816	707940	Scotty and I will be in NYC.	Scotty and i will be NYC	33652027	1472755405039	1472755405175	e	69
64816	707940	Scotty and I will be in NYC.	Scotty and i will be NYC	33652143	1472755405207	1472755405311	 	32
64816	707940	Scotty and I will be in NYC.	Scotty and i will be NYC	33652173	1472755405519	1472755407519	SHIFT	16
64816	707940	Scotty and I will be in NYC.	Scotty and i will be NYC	33652150	1472755405640	1472755405719	N	78
64816	707940	Scotty and I will be in NYC.	Scotty and i will be NYC	33652154	1472755406169	1472755406255	Y	89
64816	707940	Scotty and I will be in NYC.	Scotty and i will be NYC	33652159	1472755406712	1472755406751	V	86
64816	707940	Scotty and I will be in NYC.	Scotty and i will be NYC	33652164	1472755407167	1472755407311	BKSP	8
64816	707940	Scotty and I will be in NYC.	Scotty and i will be NYC	33652170	1472755407343	1472755407495	C	67
64816	707959	We are in the process of making a change.	We are in the process of making a change.	33652473	1472755401849	1472755413055	t	84
64816	707959	We are in the process of making a change.	We are in the process of making a change.	33652343	1472755409599	1472755409695	SHIFT	16
64816	707959	We are in the process of making a change.	We are in the process of making a change.	33652348	1472755409967	1472755410087	w	87
64816	707959	We are in the process of making a change.	We are in the process of making a change.	33652352	1472755410183	1472755410287	e	69
64816	707959	We are in the process of making a change.	We are in the process of making a change.	33652356	1472755410447	1472755410527	BKSP	8
64816	707959	We are in the process of making a change.	We are in the process of making a change.	33652367	1472755410599	1472755410846	SHIFT	16
64816	707959	We are in the process of making a change.	We are in the process of making a change.	33652362	1472755410607	1472755410679	BKSP	8
64816	707959	We are in the process of making a change.	We are in the process of making a change.	33652370	1472755410759	1472755410871	W	87
64816	707959	We are in the process of making a change.	We are in the process of making a change.	33652373	1472755410991	1472755411111	e	69
64816	707959	We are in the process of making a change.	We are in the process of making a change.	33652376	1472755411167	1472755411303	 	32
64816	707959	We are in the process of making a change.	We are in the process of making a change.	33652400	1472755411368	1472755411479	a	65
64816	707959	We are in the process of making a change.	We are in the process of making a change.	33652405	1472755411631	1472755411726	r	82
64816	707959	We are in the process of making a change.	We are in the process of making a change.	33652407	1472755411871	1472755411982	e	69
64816	707959	We are in the process of making a change.	We are in the process of making a change.	33652414	1472755412223	1472755412375	 	32
64816	707959	We are in the process of making a change.	We are in the process of making a change.	33652421	1472755412415	1472755412511	i	73
64816	707959	We are in the process of making a change.	We are in the process of making a change.	33652464	1472755412671	1472755412854	n	78
64816	707959	We are in the process of making a change.	We are in the process of making a change.	33652467	1472755412807	1472755412951	 	32
64816	707959	We are in the process of making a change.	We are in the process of making a change.	33652481	1472755413062	1472755413167	h	72
64816	707959	We are in the process of making a change.	We are in the process of making a change.	33652492	1472755413223	1472755413344	e	69
64816	707959	We are in the process of making a change.	We are in the process of making a change.	33652641	1472755413335	1472755413446	 	32
64816	707959	We are in the process of making a change.	We are in the process of making a change.	33652645	1472755413630	1472755413823	p	80
64816	707959	We are in the process of making a change.	We are in the process of making a change.	33652650	1472755413839	1472755414007	r	82
64816	707959	We are in the process of making a change.	We are in the process of making a change.	33652655	1472755414103	1472755414262	o	79
64816	707959	We are in the process of making a change.	We are in the process of making a change.	33652660	1472755414999	1472755415135	c	67
64816	707959	We are in the process of making a change.	We are in the process of making a change.	33652663	1472755415935	1472755416023	e	69
64816	707959	We are in the process of making a change.	We are in the process of making a change.	33652691	1472755416183	1472755416239	s	83
64816	707959	We are in the process of making a change.	We are in the process of making a change.	33652692	1472755416319	1472755416415	s	83
64816	707959	We are in the process of making a change.	We are in the process of making a change.	33652694	1472755416495	1472755416639	 	32
64816	707959	We are in the process of making a change.	We are in the process of making a change.	33652696	1472755416671	1472755416807	o	79
64816	707959	We are in the process of making a change.	We are in the process of making a change.	33652755	1472755416703	1472755416847	f	70
64816	707959	We are in the process of making a change.	We are in the process of making a change.	33652758	1472755417215	1472755417335	 	32
64816	707959	We are in the process of making a change.	We are in the process of making a change.	33652760	1472755417471	1472755417599	m	77
64816	707959	We are in the process of making a change.	We are in the process of making a change.	33652762	1472755417607	1472755417735	a	65
64816	707959	We are in the process of making a change.	We are in the process of making a change.	33652763	1472755417807	1472755417935	k	75
64816	707959	We are in the process of making a change.	We are in the process of making a change.	33652764	1472755418055	1472755418143	i	73
64816	707959	We are in the process of making a change.	We are in the process of making a change.	33652880	1472755418279	1472755418383	n	78
64816	707959	We are in the process of making a change.	We are in the process of making a change.	33652884	1472755419357	1472755419375	g	71
64816	707959	We are in the process of making a change.	We are in the process of making a change.	33652888	1472755419376	1472755419479	 	32
64816	707959	We are in the process of making a change.	We are in the process of making a change.	33652889	1472755419559	1472755419687	a	65
64816	707959	We are in the process of making a change.	We are in the process of making a change.	33652892	1472755419727	1472755419863	 	32
64816	707959	We are in the process of making a change.	We are in the process of making a change.	33652917	1472755419927	1472755420063	c	67
64816	707959	We are in the process of making a change.	We are in the process of making a change.	33652919	1472755420087	1472755420175	h	72
64816	707959	We are in the process of making a change.	We are in the process of making a change.	33652925	1472755420255	1472755420398	a	65
64816	707959	We are in the process of making a change.	We are in the process of making a change.	33652928	1472755420359	1472755420455	n	78
64816	707959	We are in the process of making a change.	We are in the process of making a change.	33652935	1472755420567	1472755420654	g	71
64816	707959	We are in the process of making a change.	We are in the process of making a change.	33652965	1472755420647	1472755420751	e	69
64816	707959	We are in the process of making a change.	We are in the process of making a change.	33652967	1472755421111	1472755421223	.	190
64816	707974	Weather is bad here.	Weather is bed here.	33653250	1472755412926	1472755425734	t	84
64816	707974	Weather is bad here.	Weather is bed here.	33653233	1472755423590	1472755423935	SHIFT	16
64816	707974	Weather is bad here.	Weather is bed here.	33653236	1472755423815	1472755423951	W	87
64816	707974	Weather is bad here.	Weather is bed here.	33653240	1472755424559	1472755424663	e	69
64816	707974	Weather is bad here.	Weather is bed here.	33653245	1472755425185	1472755425318	a	65
64816	707974	Weather is bad here.	Weather is bed here.	33653254	1472755425871	1472755425967	h	72
64816	707974	Weather is bad here.	Weather is bed here.	33653286	1472755426087	1472755426190	e	69
64816	707974	Weather is bad here.	Weather is bed here.	33653291	1472755426311	1472755426406	r	82
64816	707974	Weather is bad here.	Weather is bed here.	33653297	1472755426447	1472755426575	 	32
64816	707974	Weather is bad here.	Weather is bed here.	33653304	1472755426591	1472755426718	i	73
64816	707974	Weather is bad here.	Weather is bed here.	33653346	1472755426711	1472755426870	s	83
64816	707974	Weather is bad here.	Weather is bed here.	33653349	1472755426877	1472755426950	 	32
64816	707974	Weather is bad here.	Weather is bed here.	33653351	1472755427119	1472755427214	b	66
64816	707974	Weather is bad here.	Weather is bed here.	33653355	1472755427231	1472755427358	e	69
64816	707974	Weather is bad here.	Weather is bed here.	33653358	1472755427495	1472755427614	d	68
64816	707974	Weather is bad here.	Weather is bed here.	33653360	1472755427687	1472755427814	 	32
64816	707974	Weather is bad here.	Weather is bed here.	33653451	1472755427999	1472755428103	h	72
64816	707974	Weather is bad here.	Weather is bed here.	33653453	1472755428503	1472755428646	BKSP	8
64816	707974	Weather is bad here.	Weather is bed here.	33653458	1472755429071	1472755429166	h	72
64816	707974	Weather is bad here.	Weather is bed here.	33653463	1472755429207	1472755429318	e	69
64816	707974	Weather is bad here.	Weather is bed here.	33653467	1472755429391	1472755429486	r	82
64816	707974	Weather is bad here.	Weather is bed here.	33653471	1472755429591	1472755429678	e	69
64816	707974	Weather is bad here.	Weather is bed here.	33653537	1472755430487	1472755430542	.	190
64816	707990	A state supreme court judge is expected to rule on the issue shortly.	A state supreme court judge is expected to rule on the issue shorty.	33653807	1472755425656	1472755433694	t	84
64816	707990	A state supreme court judge is expected to rule on the issue shortly.	A state supreme court judge is expected to rule on the issue shorty.	33653795	1472755432638	1472755432895	SHIFT	16
64816	707990	A state supreme court judge is expected to rule on the issue shortly.	A state supreme court judge is expected to rule on the issue shorty.	33653799	1472755432806	1472755432950	A	65
64816	707990	A state supreme court judge is expected to rule on the issue shortly.	A state supreme court judge is expected to rule on the issue shorty.	33653801	1472755433079	1472755433230	s	83
64816	707990	A state supreme court judge is expected to rule on the issue shortly.	A state supreme court judge is expected to rule on the issue shorty.	33653971	1472755433463	1472755436102	t	84
64816	707990	A state supreme court judge is expected to rule on the issue shortly.	A state supreme court judge is expected to rule on the issue shorty.	33653812	1472755433654	1472755433846	s	83
64816	707990	A state supreme court judge is expected to rule on the issue shortly.	A state supreme court judge is expected to rule on the issue shorty.	33653821	1472755434207	1472755434270	BKSP	8
64816	707990	A state supreme court judge is expected to rule on the issue shortly.	A state supreme court judge is expected to rule on the issue shorty.	33653828	1472755434359	1472755434414	BKSP	8
64816	707990	A state supreme court judge is expected to rule on the issue shortly.	A state supreme court judge is expected to rule on the issue shorty.	33653833	1472755434487	1472755434574	BKSP	8
64816	707990	A state supreme court judge is expected to rule on the issue shortly.	A state supreme court judge is expected to rule on the issue shorty.	33653837	1472755434751	1472755434894	 	32
64816	707990	A state supreme court judge is expected to rule on the issue shortly.	A state supreme court judge is expected to rule on the issue shorty.	33653952	1472755435014	1472755435230	SHIFT	16
64816	707990	A state supreme court judge is expected to rule on the issue shortly.	A state supreme court judge is expected to rule on the issue shorty.	33653956	1472755435183	1472755435310	S	83
64816	707990	A state supreme court judge is expected to rule on the issue shortly.	A state supreme court judge is expected to rule on the issue shorty.	33653961	1472755435671	1472755435742	BKSP	8
64816	707990	A state supreme court judge is expected to rule on the issue shortly.	A state supreme court judge is expected to rule on the issue shorty.	33653965	1472755435799	1472755435974	s	83
64816	707990	A state supreme court judge is expected to rule on the issue shortly.	A state supreme court judge is expected to rule on the issue shorty.	33653980	1472755435991	1472755436830	t	84
64816	707990	A state supreme court judge is expected to rule on the issue shortly.	A state supreme court judge is expected to rule on the issue shorty.	33653974	1472755436279	1472755436422	a	65
64816	707990	A state supreme court judge is expected to rule on the issue shortly.	A state supreme court judge is expected to rule on the issue shorty.	33654627	1472755436767	1472755445521	t	84
64816	707990	A state supreme court judge is expected to rule on the issue shortly.	A state supreme court judge is expected to rule on the issue shorty.	33654091	1472755436903	1472755437030	e	69
64816	707990	A state supreme court judge is expected to rule on the issue shortly.	A state supreme court judge is expected to rule on the issue shorty.	33654093	1472755437327	1472755437462	 	32
64816	707990	A state supreme court judge is expected to rule on the issue shortly.	A state supreme court judge is expected to rule on the issue shorty.	33654095	1472755437519	1472755437678	s	83
64816	707990	A state supreme court judge is expected to rule on the issue shortly.	A state supreme court judge is expected to rule on the issue shorty.	33654097	1472755437967	1472755438070	u	85
64816	707990	A state supreme court judge is expected to rule on the issue shortly.	A state supreme court judge is expected to rule on the issue shorty.	33654098	1472755438375	1472755438702	p	80
64816	707990	A state supreme court judge is expected to rule on the issue shortly.	A state supreme court judge is expected to rule on the issue shorty.	33654336	1472755439015	1472755439182	e	69
64816	707990	A state supreme court judge is expected to rule on the issue shortly.	A state supreme court judge is expected to rule on the issue shorty.	33654338	1472755439793	1472755439934	r	82
64816	707990	A state supreme court judge is expected to rule on the issue shortly.	A state supreme court judge is expected to rule on the issue shorty.	33654341	1472755441231	1472755441318	BKSP	8
64816	707990	A state supreme court judge is expected to rule on the issue shortly.	A state supreme court judge is expected to rule on the issue shorty.	33654345	1472755441398	1472755441518	BKSP	8
64816	707990	A state supreme court judge is expected to rule on the issue shortly.	A state supreme court judge is expected to rule on the issue shorty.	33654350	1472755441582	1472755441686	r	82
64816	707990	A state supreme court judge is expected to rule on the issue shortly.	A state supreme court judge is expected to rule on the issue shorty.	33654356	1472755441783	1472755441894	e	69
64816	707990	A state supreme court judge is expected to rule on the issue shortly.	A state supreme court judge is expected to rule on the issue shorty.	33654361	1472755442007	1472755442142	m	77
64816	707990	A state supreme court judge is expected to rule on the issue shortly.	A state supreme court judge is expected to rule on the issue shorty.	33654514	1472755442159	1472755442270	e	69
64816	707990	A state supreme court judge is expected to rule on the issue shortly.	A state supreme court judge is expected to rule on the issue shorty.	33654518	1472755442703	1472755442854	 	32
64816	707990	A state supreme court judge is expected to rule on the issue shortly.	A state supreme court judge is expected to rule on the issue shorty.	33654521	1472755443030	1472755443190	c	67
64816	707990	A state supreme court judge is expected to rule on the issue shortly.	A state supreme court judge is expected to rule on the issue shorty.	33654523	1472755443263	1472755443398	o	79
64816	707990	A state supreme court judge is expected to rule on the issue shortly.	A state supreme court judge is expected to rule on the issue shorty.	33654525	1472755444423	1472755444630	u	85
64816	707990	A state supreme court judge is expected to rule on the issue shortly.	A state supreme court judge is expected to rule on the issue shorty.	33654623	1472755445499	1472755445515	r	82
64816	707990	A state supreme court judge is expected to rule on the issue shortly.	A state supreme court judge is expected to rule on the issue shorty.	33655050	1472755445516	1472755451398	t	84
64816	707990	A state supreme court judge is expected to rule on the issue shortly.	A state supreme court judge is expected to rule on the issue shorty.	33654629	1472755445622	1472755445710	 	32
64816	707990	A state supreme court judge is expected to rule on the issue shortly.	A state supreme court judge is expected to rule on the issue shorty.	33654633	1472755445910	1472755445990	j	74
64816	707990	A state supreme court judge is expected to rule on the issue shortly.	A state supreme court judge is expected to rule on the issue shorty.	33654636	1472755446270	1472755446382	u	85
64816	707990	A state supreme court judge is expected to rule on the issue shortly.	A state supreme court judge is expected to rule on the issue shorty.	33654786	1472755447318	1472755447486	d	68
64816	707990	A state supreme court judge is expected to rule on the issue shortly.	A state supreme court judge is expected to rule on the issue shorty.	33654790	1472755447840	1472755448030	g	71
64816	707990	A state supreme court judge is expected to rule on the issue shortly.	A state supreme court judge is expected to rule on the issue shorty.	33654793	1472755448086	1472755448246	e	69
64816	707990	A state supreme court judge is expected to rule on the issue shortly.	A state supreme court judge is expected to rule on the issue shorty.	33654797	1472755448393	1472755448526	 	32
64816	707990	A state supreme court judge is expected to rule on the issue shortly.	A state supreme court judge is expected to rule on the issue shorty.	33654801	1472755448574	1472755448685	i	73
64816	707990	A state supreme court judge is expected to rule on the issue shortly.	A state supreme court judge is expected to rule on the issue shorty.	33654950	1472755448654	1472755448814	s	83
64816	707990	A state supreme court judge is expected to rule on the issue shortly.	A state supreme court judge is expected to rule on the issue shorty.	33654956	1472755448846	1472755448974	 	32
64816	707990	A state supreme court judge is expected to rule on the issue shortly.	A state supreme court judge is expected to rule on the issue shorty.	33654962	1472755449254	1472755449366	e	69
64816	707990	A state supreme court judge is expected to rule on the issue shortly.	A state supreme court judge is expected to rule on the issue shorty.	33654970	1472755449654	1472755449782	c	67
64816	707990	A state supreme court judge is expected to rule on the issue shortly.	A state supreme court judge is expected to rule on the issue shorty.	33654976	1472755449966	1472755450190	p	80
64816	707990	A state supreme court judge is expected to rule on the issue shortly.	A state supreme court judge is expected to rule on the issue shorty.	33654977	1472755450671	1472755450798	e	69
64816	707990	A state supreme court judge is expected to rule on the issue shortly.	A state supreme court judge is expected to rule on the issue shorty.	33655048	1472755450981	1472755451070	c	67
64816	707990	A state supreme court judge is expected to rule on the issue shortly.	A state supreme court judge is expected to rule on the issue shorty.	33655150	1472755451318	1472755452214	t	84
64816	707990	A state supreme court judge is expected to rule on the issue shortly.	A state supreme court judge is expected to rule on the issue shorty.	33655051	1472755451558	1472755451646	e	69
64816	707990	A state supreme court judge is expected to rule on the issue shortly.	A state supreme court judge is expected to rule on the issue shorty.	33655053	1472755451798	1472755451878	d	68
64816	707990	A state supreme court judge is expected to rule on the issue shortly.	A state supreme court judge is expected to rule on the issue shorty.	33655056	1472755451950	1472755452062	 	32
64816	707990	A state supreme court judge is expected to rule on the issue shortly.	A state supreme court judge is expected to rule on the issue shorty.	33655282	1472755452102	1472755455222	t	84
64816	707990	A state supreme court judge is expected to rule on the issue shortly.	A state supreme court judge is expected to rule on the issue shorty.	33655151	1472755452270	1472755452414	o	79
64816	707990	A state supreme court judge is expected to rule on the issue shortly.	A state supreme court judge is expected to rule on the issue shorty.	33655152	1472755452789	1472755452942	 	32
64816	707990	A state supreme court judge is expected to rule on the issue shortly.	A state supreme court judge is expected to rule on the issue shorty.	33655153	1472755453310	1472755453454	r	82
64816	707990	A state supreme court judge is expected to rule on the issue shortly.	A state supreme court judge is expected to rule on the issue shorty.	33655156	1472755453566	1472755453678	u	85
64816	707990	A state supreme court judge is expected to rule on the issue shortly.	A state supreme court judge is expected to rule on the issue shorty.	33655240	1472755453974	1472755454182	l	76
64816	707990	A state supreme court judge is expected to rule on the issue shortly.	A state supreme court judge is expected to rule on the issue shorty.	33655241	1472755454166	1472755454334	e	69
64816	707990	A state supreme court judge is expected to rule on the issue shortly.	A state supreme court judge is expected to rule on the issue shorty.	33655242	1472755454430	1472755454542	 	32
64816	707990	A state supreme court judge is expected to rule on the issue shortly.	A state supreme court judge is expected to rule on the issue shorty.	33655243	1472755454606	1472755454702	o	79
64816	707990	A state supreme court judge is expected to rule on the issue shortly.	A state supreme court judge is expected to rule on the issue shorty.	33655245	1472755454846	1472755454992	n	78
64816	707990	A state supreme court judge is expected to rule on the issue shortly.	A state supreme court judge is expected to rule on the issue shorty.	33655280	1472755454982	1472755455111	 	32
64816	707990	A state supreme court judge is expected to rule on the issue shortly.	A state supreme court judge is expected to rule on the issue shorty.	33655284	1472755455245	1472755455350	h	72
64816	707990	A state supreme court judge is expected to rule on the issue shortly.	A state supreme court judge is expected to rule on the issue shorty.	33655287	1472755455406	1472755455518	e	69
64816	707990	A state supreme court judge is expected to rule on the issue shortly.	A state supreme court judge is expected to rule on the issue shorty.	33655291	1472755455542	1472755455662	 	32
64816	707990	A state supreme court judge is expected to rule on the issue shortly.	A state supreme court judge is expected to rule on the issue shorty.	33655293	1472755455766	1472755455902	i	73
64816	707990	A state supreme court judge is expected to rule on the issue shortly.	A state supreme court judge is expected to rule on the issue shorty.	33655383	1472755456078	1472755456358	s	83
64816	707990	A state supreme court judge is expected to rule on the issue shortly.	A state supreme court judge is expected to rule on the issue shorty.	33655389	1472755456493	1472755456614	s	83
64816	707990	A state supreme court judge is expected to rule on the issue shortly.	A state supreme court judge is expected to rule on the issue shorty.	33655394	1472755456758	1472755456901	i	73
64816	707990	A state supreme court judge is expected to rule on the issue shortly.	A state supreme court judge is expected to rule on the issue shorty.	33655398	1472755456982	1472755457118	e	69
64816	707990	A state supreme court judge is expected to rule on the issue shortly.	A state supreme court judge is expected to rule on the issue shorty.	33655404	1472755457399	1472755457469	BKSP	8
64816	707990	A state supreme court judge is expected to rule on the issue shortly.	A state supreme court judge is expected to rule on the issue shorty.	33655408	1472755457558	1472755457630	BKSP	8
64816	707990	A state supreme court judge is expected to rule on the issue shortly.	A state supreme court judge is expected to rule on the issue shorty.	33655411	1472755457830	1472755457966	u	85
64816	707990	A state supreme court judge is expected to rule on the issue shortly.	A state supreme court judge is expected to rule on the issue shorty.	33655490	1472755458006	1472755458134	e	69
64816	707990	A state supreme court judge is expected to rule on the issue shortly.	A state supreme court judge is expected to rule on the issue shorty.	33655492	1472755458198	1472755458302	 	32
64816	707990	A state supreme court judge is expected to rule on the issue shortly.	A state supreme court judge is expected to rule on the issue shorty.	33655496	1472755458358	1472755458518	s	83
64816	707990	A state supreme court judge is expected to rule on the issue shortly.	A state supreme court judge is expected to rule on the issue shorty.	33655499	1472755458926	1472755459078	h	72
64816	707990	A state supreme court judge is expected to rule on the issue shortly.	A state supreme court judge is expected to rule on the issue shorty.	33655501	1472755459758	1472755459990	o	79
64816	707990	A state supreme court judge is expected to rule on the issue shortly.	A state supreme court judge is expected to rule on the issue shorty.	33655632	1472755459974	1472755460134	r	82
64816	707990	A state supreme court judge is expected to rule on the issue shortly.	A state supreme court judge is expected to rule on the issue shorty.	33655635	1472755460198	1472755460390	l	76
64816	707990	A state supreme court judge is expected to rule on the issue shortly.	A state supreme court judge is expected to rule on the issue shorty.	33655639	1472755461407	1472755461502	y	89
64816	707990	A state supreme court judge is expected to rule on the issue shortly.	A state supreme court judge is expected to rule on the issue shorty.	33655642	1472755461767	1472755461917	.	190
